
output.elf:     file format elf32-avr

Sections:
Idx Name          Size      VMA       LMA       File off  Algn
  0 .text         0000056e  00000000  00000000  00000094  2**0
                  CONTENTS, ALLOC, LOAD, READONLY, CODE
  1 .trampolines  00000000  0000056e  0000056e  00000602  2**1
                  CONTENTS, ALLOC, LOAD, READONLY, CODE
  2 .vectors      00000068  0000056e  0000056e  00000602  2**0
                  CONTENTS, ALLOC, LOAD, READONLY, CODE
  3 .init2        0000000c  000005d6  000005d6  0000066a  2**0
                  CONTENTS, ALLOC, LOAD, READONLY, CODE
  4 .init9        00000008  000005e2  000005e2  00000676  2**0
                  CONTENTS, ALLOC, LOAD, READONLY, CODE
  5 .kernel_main  000000ba  000005ea  000005ea  0000067e  2**0
                  CONTENTS, ALLOC, LOAD, READONLY, CODE
  6 .text.libgcc.prologue 0000006e  000006a4  000006a4  00000738  2**0
                  CONTENTS, ALLOC, LOAD, READONLY, CODE
  7 .fini0        00000004  00000712  00000712  000007a6  2**0
                  CONTENTS, ALLOC, LOAD, READONLY, CODE
  8 .init4        00000026  00000716  00000716  000007aa  2**0
                  CONTENTS, ALLOC, LOAD, READONLY, CODE
  9 .text.avr-libc 00000c52  0000073c  0000073c  000007d0  2**0
                  CONTENTS, ALLOC, LOAD, READONLY, CODE
 10 .core_syscalls 000000d2  0000138e  0000138e  00001422  2**0
                  CONTENTS, ALLOC, LOAD, READONLY, CODE
 11 .test         00000028  00001460  00001460  000014f4  2**0
                  CONTENTS, ALLOC, LOAD, READONLY, CODE
 12 .mshell       0000008c  00001800  00001800  0000151c  2**0
                  CONTENTS, ALLOC, LOAD, READONLY, CODE
 13 .rodata       000000e1  0000188c  0000188c  000015a8  2**0
                  CONTENTS, ALLOC, LOAD, READONLY, DATA
 14 .progmem.data 0000000c  0000196d  0000196d  00001689  2**0
                  CONTENTS, ALLOC, LOAD, READONLY, DATA
 15 .bss          00000006  00800100  00800100  00001695  2**0
                  ALLOC
 16 .note.gnu.avr.deviceinfo 00000040  00000000  00000000  00001698  2**2
                  CONTENTS, READONLY
 17 .debug_abbrev 000005a2  00000000  00000000  000016d8  2**0
                  CONTENTS, READONLY, DEBUGGING
 18 .debug_info   000005f4  00000000  00000000  00001c7a  2**0
                  CONTENTS, READONLY, DEBUGGING
 19 .debug_line   0000001a  00000000  00000000  0000226e  2**0
                  CONTENTS, READONLY, DEBUGGING
 20 .debug_str    00000208  00000000  00000000  00002288  2**0
                  CONTENTS, READONLY, DEBUGGING

Disassembly of section .text:

00000000 <__bad_interrupt>:
   0:	0c 94 b7 02 	jmp	0x56e	; 0x56e <__vectors>

00000004 <__usart_init>:
   4:	cf 93       	push	r28
   6:	df 93       	push	r29
   8:	00 d0       	rcall	.+0      	; 0xa <__usart_init+0x6>
   a:	00 d0       	rcall	.+0      	; 0xc <__usart_init+0x8>
   c:	cd b7       	in	r28, 0x3d	; 61
   e:	de b7       	in	r29, 0x3e	; 62
  10:	87 e6       	ldi	r24, 0x67	; 103
  12:	90 e0       	ldi	r25, 0x00	; 0
  14:	a0 e0       	ldi	r26, 0x00	; 0
  16:	b0 e0       	ldi	r27, 0x00	; 0
  18:	89 83       	std	Y+1, r24	; 0x01
  1a:	9a 83       	std	Y+2, r25	; 0x02
  1c:	ab 83       	std	Y+3, r26	; 0x03
  1e:	bc 83       	std	Y+4, r27	; 0x04
  20:	89 81       	ldd	r24, Y+1	; 0x01
  22:	9a 81       	ldd	r25, Y+2	; 0x02
  24:	ab 81       	ldd	r26, Y+3	; 0x03
  26:	bc 81       	ldd	r27, Y+4	; 0x04
  28:	89 2f       	mov	r24, r25
  2a:	9a 2f       	mov	r25, r26
  2c:	ab 2f       	mov	r26, r27
  2e:	bb 27       	eor	r27, r27
  30:	25 ec       	ldi	r18, 0xC5	; 197
  32:	30 e0       	ldi	r19, 0x00	; 0
  34:	f9 01       	movw	r30, r18
  36:	80 83       	st	Z, r24
  38:	84 ec       	ldi	r24, 0xC4	; 196
  3a:	90 e0       	ldi	r25, 0x00	; 0
  3c:	29 81       	ldd	r18, Y+1	; 0x01
  3e:	fc 01       	movw	r30, r24
  40:	20 83       	st	Z, r18
  42:	81 ec       	ldi	r24, 0xC1	; 193
  44:	90 e0       	ldi	r25, 0x00	; 0
  46:	28 e1       	ldi	r18, 0x18	; 24
  48:	fc 01       	movw	r30, r24
  4a:	20 83       	st	Z, r18
  4c:	00 00       	nop
  4e:	0f 90       	pop	r0
  50:	0f 90       	pop	r0
  52:	0f 90       	pop	r0
  54:	0f 90       	pop	r0
  56:	df 91       	pop	r29
  58:	cf 91       	pop	r28
  5a:	08 95       	ret

0000005c <__usart_send_char>:
  5c:	cf 93       	push	r28
  5e:	df 93       	push	r29
  60:	1f 92       	push	r1
  62:	cd b7       	in	r28, 0x3d	; 61
  64:	de b7       	in	r29, 0x3e	; 62
  66:	89 83       	std	Y+1, r24	; 0x01
  68:	00 00       	nop
  6a:	80 ec       	ldi	r24, 0xC0	; 192
  6c:	90 e0       	ldi	r25, 0x00	; 0
  6e:	fc 01       	movw	r30, r24
  70:	80 81       	ld	r24, Z
  72:	88 2f       	mov	r24, r24
  74:	90 e0       	ldi	r25, 0x00	; 0
  76:	80 72       	andi	r24, 0x20	; 32
  78:	99 27       	eor	r25, r25
  7a:	89 2b       	or	r24, r25
  7c:	b1 f3       	breq	.-20     	; 0x6a <__usart_send_char+0xe>
  7e:	86 ec       	ldi	r24, 0xC6	; 198
  80:	90 e0       	ldi	r25, 0x00	; 0
  82:	29 81       	ldd	r18, Y+1	; 0x01
  84:	fc 01       	movw	r30, r24
  86:	20 83       	st	Z, r18
  88:	80 e0       	ldi	r24, 0x00	; 0
  8a:	90 e0       	ldi	r25, 0x00	; 0
  8c:	0f 90       	pop	r0
  8e:	df 91       	pop	r29
  90:	cf 91       	pop	r28
  92:	08 95       	ret

00000094 <__usart_receive_char>:
  94:	cf 93       	push	r28
  96:	df 93       	push	r29
  98:	00 d0       	rcall	.+0      	; 0x9a <__usart_receive_char+0x6>
  9a:	cd b7       	in	r28, 0x3d	; 61
  9c:	de b7       	in	r29, 0x3e	; 62
  9e:	9a 83       	std	Y+2, r25	; 0x02
  a0:	89 83       	std	Y+1, r24	; 0x01
  a2:	00 00       	nop
  a4:	80 ec       	ldi	r24, 0xC0	; 192
  a6:	90 e0       	ldi	r25, 0x00	; 0
  a8:	fc 01       	movw	r30, r24
  aa:	80 81       	ld	r24, Z
  ac:	88 23       	and	r24, r24
  ae:	d4 f7       	brge	.-12     	; 0xa4 <__usart_receive_char+0x10>
  b0:	86 ec       	ldi	r24, 0xC6	; 198
  b2:	90 e0       	ldi	r25, 0x00	; 0
  b4:	fc 01       	movw	r30, r24
  b6:	80 81       	ld	r24, Z
  b8:	88 2f       	mov	r24, r24
  ba:	90 e0       	ldi	r25, 0x00	; 0
  bc:	0f 90       	pop	r0
  be:	0f 90       	pop	r0
  c0:	df 91       	pop	r29
  c2:	cf 91       	pop	r28
  c4:	08 95       	ret

000000c6 <__fcreate_E>:
  c6:	cf 93       	push	r28
  c8:	df 93       	push	r29
  ca:	cd b7       	in	r28, 0x3d	; 61
  cc:	de b7       	in	r29, 0x3e	; 62
  ce:	6b 97       	sbiw	r28, 0x1b	; 27
  d0:	0f b6       	in	r0, 0x3f	; 63
  d2:	f8 94       	cli
  d4:	de bf       	out	0x3e, r29	; 62
  d6:	0f be       	out	0x3f, r0	; 63
  d8:	cd bf       	out	0x3d, r28	; 61
  da:	98 8f       	std	Y+24, r25	; 0x18
  dc:	8f 8b       	std	Y+23, r24	; 0x17
  de:	69 8f       	std	Y+25, r22	; 0x19
  e0:	4a 8f       	std	Y+26, r20	; 0x1a
  e2:	2b 8f       	std	Y+27, r18	; 0x1b
  e4:	81 e0       	ldi	r24, 0x01	; 1
  e6:	89 83       	std	Y+1, r24	; 0x01
  e8:	1b 82       	std	Y+3, r1	; 0x03
  ea:	1a 82       	std	Y+2, r1	; 0x02
  ec:	1e 82       	std	Y+6, r1	; 0x06
  ee:	1d 82       	std	Y+5, r1	; 0x05
  f0:	8f ef       	ldi	r24, 0xFF	; 255
  f2:	8c 83       	std	Y+4, r24	; 0x04
  f4:	89 8d       	ldd	r24, Y+25	; 0x19
  f6:	82 30       	cpi	r24, 0x02	; 2
  f8:	81 f4       	brne	.+32     	; 0x11a <__fcreate_E+0x54>
  fa:	8b 8d       	ldd	r24, Y+27	; 0x1b
  fc:	88 23       	and	r24, r24
  fe:	69 f0       	breq	.+26     	; 0x11a <__fcreate_E+0x54>
 100:	84 eb       	ldi	r24, 0xB4	; 180
 102:	98 e1       	ldi	r25, 0x18	; 24
 104:	89 2f       	mov	r24, r25
 106:	8f 93       	push	r24
 108:	84 eb       	ldi	r24, 0xB4	; 180
 10a:	98 e1       	ldi	r25, 0x18	; 24
 10c:	8f 93       	push	r24
 10e:	0e 94 10 04 	call	0x820	; 0x820 <printf_P>
 112:	0f 90       	pop	r0
 114:	0f 90       	pop	r0
 116:	80 e0       	ldi	r24, 0x00	; 0
 118:	70 c0       	rjmp	.+224    	; 0x1fa <__fcreate_E+0x134>
 11a:	8b 8d       	ldd	r24, Y+27	; 0x1b
 11c:	85 36       	cpi	r24, 0x65	; 101
 11e:	68 f0       	brcs	.+26     	; 0x13a <__fcreate_E+0x74>
 120:	8b ee       	ldi	r24, 0xEB	; 235
 122:	98 e1       	ldi	r25, 0x18	; 24
 124:	89 2f       	mov	r24, r25
 126:	8f 93       	push	r24
 128:	8b ee       	ldi	r24, 0xEB	; 235
 12a:	98 e1       	ldi	r25, 0x18	; 24
 12c:	8f 93       	push	r24
 12e:	0e 94 10 04 	call	0x820	; 0x820 <printf_P>
 132:	0f 90       	pop	r0
 134:	0f 90       	pop	r0
 136:	80 e0       	ldi	r24, 0x00	; 0
 138:	60 c0       	rjmp	.+192    	; 0x1fa <__fcreate_E+0x134>
 13a:	1b 82       	std	Y+3, r1	; 0x03
 13c:	1a 82       	std	Y+2, r1	; 0x02
 13e:	0e c0       	rjmp	.+28     	; 0x15c <__fcreate_E+0x96>
 140:	8a 81       	ldd	r24, Y+2	; 0x02
 142:	9b 81       	ldd	r25, Y+3	; 0x03
 144:	02 96       	adiw	r24, 0x02	; 2
 146:	0e 94 a7 09 	call	0x134e	; 0x134e <eeprom_read_byte>
 14a:	8c 83       	std	Y+4, r24	; 0x04
 14c:	8c 81       	ldd	r24, Y+4	; 0x04
 14e:	88 23       	and	r24, r24
 150:	59 f0       	breq	.+22     	; 0x168 <__fcreate_E+0xa2>
 152:	8a 81       	ldd	r24, Y+2	; 0x02
 154:	9b 81       	ldd	r25, Y+3	; 0x03
 156:	40 96       	adiw	r24, 0x10	; 16
 158:	9b 83       	std	Y+3, r25	; 0x03
 15a:	8a 83       	std	Y+2, r24	; 0x02
 15c:	8a 81       	ldd	r24, Y+2	; 0x02
 15e:	9b 81       	ldd	r25, Y+3	; 0x03
 160:	81 15       	cp	r24, r1
 162:	94 40       	sbci	r25, 0x04	; 4
 164:	68 f3       	brcs	.-38     	; 0x140 <__fcreate_E+0x7a>
 166:	01 c0       	rjmp	.+2      	; 0x16a <__fcreate_E+0xa4>
 168:	00 00       	nop
 16a:	8c 81       	ldd	r24, Y+4	; 0x04
 16c:	88 23       	and	r24, r24
 16e:	11 f0       	breq	.+4      	; 0x174 <__fcreate_E+0xae>
 170:	80 e0       	ldi	r24, 0x00	; 0
 172:	43 c0       	rjmp	.+134    	; 0x1fa <__fcreate_E+0x134>
 174:	8a 81       	ldd	r24, Y+2	; 0x02
 176:	9b 81       	ldd	r25, Y+3	; 0x03
 178:	9e 83       	std	Y+6, r25	; 0x06
 17a:	8d 83       	std	Y+5, r24	; 0x05
 17c:	1b 82       	std	Y+3, r1	; 0x03
 17e:	1a 82       	std	Y+2, r1	; 0x02
 180:	8a 81       	ldd	r24, Y+2	; 0x02
 182:	9b 81       	ldd	r25, Y+3	; 0x03
 184:	02 96       	adiw	r24, 0x02	; 2
 186:	0e 94 a7 09 	call	0x134e	; 0x134e <eeprom_read_byte>
 18a:	8c 83       	std	Y+4, r24	; 0x04
 18c:	8a 81       	ldd	r24, Y+2	; 0x02
 18e:	9b 81       	ldd	r25, Y+3	; 0x03
 190:	40 96       	adiw	r24, 0x10	; 16
 192:	9b 83       	std	Y+3, r25	; 0x03
 194:	8a 83       	std	Y+2, r24	; 0x02
 196:	9c 81       	ldd	r25, Y+4	; 0x04
 198:	89 81       	ldd	r24, Y+1	; 0x01
 19a:	98 17       	cp	r25, r24
 19c:	29 f4       	brne	.+10     	; 0x1a8 <__fcreate_E+0xe2>
 19e:	89 81       	ldd	r24, Y+1	; 0x01
 1a0:	8f 5f       	subi	r24, 0xFF	; 255
 1a2:	89 83       	std	Y+1, r24	; 0x01
 1a4:	1b 82       	std	Y+3, r1	; 0x03
 1a6:	1a 82       	std	Y+2, r1	; 0x02
 1a8:	8a 81       	ldd	r24, Y+2	; 0x02
 1aa:	9b 81       	ldd	r25, Y+3	; 0x03
 1ac:	81 15       	cp	r24, r1
 1ae:	94 40       	sbci	r25, 0x04	; 4
 1b0:	20 f4       	brcc	.+8      	; 0x1ba <__fcreate_E+0xf4>
 1b2:	89 81       	ldd	r24, Y+1	; 0x01
 1b4:	85 36       	cpi	r24, 0x65	; 101
 1b6:	20 f3       	brcs	.-56     	; 0x180 <__fcreate_E+0xba>
 1b8:	01 c0       	rjmp	.+2      	; 0x1bc <__fcreate_E+0xf6>
 1ba:	00 00       	nop
 1bc:	8d 81       	ldd	r24, Y+5	; 0x05
 1be:	9e 81       	ldd	r25, Y+6	; 0x06
 1c0:	89 2f       	mov	r24, r25
 1c2:	99 27       	eor	r25, r25
 1c4:	8f 83       	std	Y+7, r24	; 0x07
 1c6:	89 8d       	ldd	r24, Y+25	; 0x19
 1c8:	88 87       	std	Y+8, r24	; 0x08
 1ca:	89 81       	ldd	r24, Y+1	; 0x01
 1cc:	89 87       	std	Y+9, r24	; 0x09
 1ce:	8a 8d       	ldd	r24, Y+26	; 0x1a
 1d0:	8a 87       	std	Y+10, r24	; 0x0a
 1d2:	8b 8d       	ldd	r24, Y+27	; 0x1b
 1d4:	8b 87       	std	Y+11, r24	; 0x0b
 1d6:	2f 89       	ldd	r18, Y+23	; 0x17
 1d8:	38 8d       	ldd	r19, Y+24	; 0x18
 1da:	ce 01       	movw	r24, r28
 1dc:	07 96       	adiw	r24, 0x07	; 7
 1de:	05 96       	adiw	r24, 0x05	; 5
 1e0:	b9 01       	movw	r22, r18
 1e2:	0e 94 9e 03 	call	0x73c	; 0x73c <strcpy_P>
 1e6:	2a 81       	ldd	r18, Y+2	; 0x02
 1e8:	3b 81       	ldd	r19, Y+3	; 0x03
 1ea:	ce 01       	movw	r24, r28
 1ec:	07 96       	adiw	r24, 0x07	; 7
 1ee:	40 e1       	ldi	r20, 0x10	; 16
 1f0:	50 e0       	ldi	r21, 0x00	; 0
 1f2:	b9 01       	movw	r22, r18
 1f4:	0e 94 af 09 	call	0x135e	; 0x135e <eeprom_write_block>
 1f8:	89 81       	ldd	r24, Y+1	; 0x01
 1fa:	6b 96       	adiw	r28, 0x1b	; 27
 1fc:	0f b6       	in	r0, 0x3f	; 63
 1fe:	f8 94       	cli
 200:	de bf       	out	0x3e, r29	; 62
 202:	0f be       	out	0x3f, r0	; 63
 204:	cd bf       	out	0x3d, r28	; 61
 206:	df 91       	pop	r29
 208:	cf 91       	pop	r28
 20a:	08 95       	ret

0000020c <__fstat_E>:
 20c:	cf 93       	push	r28
 20e:	df 93       	push	r29
 210:	00 d0       	rcall	.+0      	; 0x212 <__fstat_E+0x6>
 212:	00 d0       	rcall	.+0      	; 0x214 <__fstat_E+0x8>
 214:	00 d0       	rcall	.+0      	; 0x216 <__fstat_E+0xa>
 216:	1f 92       	push	r1
 218:	cd b7       	in	r28, 0x3d	; 61
 21a:	de b7       	in	r29, 0x3e	; 62
 21c:	8d 83       	std	Y+5, r24	; 0x05
 21e:	7f 83       	std	Y+7, r23	; 0x07
 220:	6e 83       	std	Y+6, r22	; 0x06
 222:	1b 82       	std	Y+3, r1	; 0x03
 224:	1a 82       	std	Y+2, r1	; 0x02
 226:	19 82       	std	Y+1, r1	; 0x01
 228:	8f ef       	ldi	r24, 0xFF	; 255
 22a:	8c 83       	std	Y+4, r24	; 0x04
 22c:	8e 81       	ldd	r24, Y+6	; 0x06
 22e:	9f 81       	ldd	r25, Y+7	; 0x07
 230:	89 2b       	or	r24, r25
 232:	19 f4       	brne	.+6      	; 0x23a <__fstat_E+0x2e>
 234:	8e ef       	ldi	r24, 0xFE	; 254
 236:	9f ef       	ldi	r25, 0xFF	; 255
 238:	2b c0       	rjmp	.+86     	; 0x290 <__fstat_E+0x84>
 23a:	89 81       	ldd	r24, Y+1	; 0x01
 23c:	88 2f       	mov	r24, r24
 23e:	90 e0       	ldi	r25, 0x00	; 0
 240:	02 96       	adiw	r24, 0x02	; 2
 242:	2a 81       	ldd	r18, Y+2	; 0x02
 244:	3b 81       	ldd	r19, Y+3	; 0x03
 246:	82 0f       	add	r24, r18
 248:	93 1f       	adc	r25, r19
 24a:	0e 94 a7 09 	call	0x134e	; 0x134e <eeprom_read_byte>
 24e:	8c 83       	std	Y+4, r24	; 0x04
 250:	9c 81       	ldd	r25, Y+4	; 0x04
 252:	8d 81       	ldd	r24, Y+5	; 0x05
 254:	98 17       	cp	r25, r24
 256:	21 f0       	breq	.+8      	; 0x260 <__fstat_E+0x54>
 258:	89 81       	ldd	r24, Y+1	; 0x01
 25a:	80 5f       	subi	r24, 0xF0	; 240
 25c:	89 83       	std	Y+1, r24	; 0x01
 25e:	ed cf       	rjmp	.-38     	; 0x23a <__fstat_E+0x2e>
 260:	00 00       	nop
 262:	9c 81       	ldd	r25, Y+4	; 0x04
 264:	8d 81       	ldd	r24, Y+5	; 0x05
 266:	98 17       	cp	r25, r24
 268:	19 f0       	breq	.+6      	; 0x270 <__fstat_E+0x64>
 26a:	8f ef       	ldi	r24, 0xFF	; 255
 26c:	9f ef       	ldi	r25, 0xFF	; 255
 26e:	10 c0       	rjmp	.+32     	; 0x290 <__fstat_E+0x84>
 270:	89 81       	ldd	r24, Y+1	; 0x01
 272:	88 2f       	mov	r24, r24
 274:	90 e0       	ldi	r25, 0x00	; 0
 276:	2a 81       	ldd	r18, Y+2	; 0x02
 278:	3b 81       	ldd	r19, Y+3	; 0x03
 27a:	28 0f       	add	r18, r24
 27c:	39 1f       	adc	r19, r25
 27e:	8e 81       	ldd	r24, Y+6	; 0x06
 280:	9f 81       	ldd	r25, Y+7	; 0x07
 282:	40 e1       	ldi	r20, 0x10	; 16
 284:	50 e0       	ldi	r21, 0x00	; 0
 286:	b9 01       	movw	r22, r18
 288:	0e 94 97 09 	call	0x132e	; 0x132e <eeprom_read_block>
 28c:	80 e0       	ldi	r24, 0x00	; 0
 28e:	90 e0       	ldi	r25, 0x00	; 0
 290:	27 96       	adiw	r28, 0x07	; 7
 292:	0f b6       	in	r0, 0x3f	; 63
 294:	f8 94       	cli
 296:	de bf       	out	0x3e, r29	; 62
 298:	0f be       	out	0x3f, r0	; 63
 29a:	cd bf       	out	0x3d, r28	; 61
 29c:	df 91       	pop	r29
 29e:	cf 91       	pop	r28
 2a0:	08 95       	ret

000002a2 <__ffind_E>:
 2a2:	cf 93       	push	r28
 2a4:	df 93       	push	r29
 2a6:	cd b7       	in	r28, 0x3d	; 61
 2a8:	de b7       	in	r29, 0x3e	; 62
 2aa:	60 97       	sbiw	r28, 0x10	; 16
 2ac:	0f b6       	in	r0, 0x3f	; 63
 2ae:	f8 94       	cli
 2b0:	de bf       	out	0x3e, r29	; 62
 2b2:	0f be       	out	0x3f, r0	; 63
 2b4:	cd bf       	out	0x3d, r28	; 61
 2b6:	9c 87       	std	Y+12, r25	; 0x0c
 2b8:	8b 87       	std	Y+11, r24	; 0x0b
 2ba:	7e 87       	std	Y+14, r23	; 0x0e
 2bc:	6d 87       	std	Y+13, r22	; 0x0d
 2be:	58 8b       	std	Y+16, r21	; 0x10
 2c0:	4f 87       	std	Y+15, r20	; 0x0f
 2c2:	1a 86       	std	Y+10, r1	; 0x0a
 2c4:	19 86       	std	Y+9, r1	; 0x09
 2c6:	19 82       	std	Y+1, r1	; 0x01
 2c8:	1a 82       	std	Y+2, r1	; 0x02
 2ca:	1c 82       	std	Y+4, r1	; 0x04
 2cc:	1b 82       	std	Y+3, r1	; 0x03
 2ce:	1e 82       	std	Y+6, r1	; 0x06
 2d0:	1d 82       	std	Y+5, r1	; 0x05
 2d2:	18 86       	std	Y+8, r1	; 0x08
 2d4:	1f 82       	std	Y+7, r1	; 0x07
 2d6:	89 81       	ldd	r24, Y+1	; 0x01
 2d8:	88 2f       	mov	r24, r24
 2da:	90 e0       	ldi	r25, 0x00	; 0
 2dc:	29 85       	ldd	r18, Y+9	; 0x09
 2de:	3a 85       	ldd	r19, Y+10	; 0x0a
 2e0:	28 0f       	add	r18, r24
 2e2:	39 1f       	adc	r19, r25
 2e4:	8f 85       	ldd	r24, Y+15	; 0x0f
 2e6:	98 89       	ldd	r25, Y+16	; 0x10
 2e8:	40 e1       	ldi	r20, 0x10	; 16
 2ea:	50 e0       	ldi	r21, 0x00	; 0
 2ec:	b9 01       	movw	r22, r18
 2ee:	0e 94 97 09 	call	0x132e	; 0x132e <eeprom_read_block>
 2f2:	8f 85       	ldd	r24, Y+15	; 0x0f
 2f4:	98 89       	ldd	r25, Y+16	; 0x10
 2f6:	fc 01       	movw	r30, r24
 2f8:	83 81       	ldd	r24, Z+3	; 0x03
 2fa:	9a 81       	ldd	r25, Y+2	; 0x02
 2fc:	98 17       	cp	r25, r24
 2fe:	09 f0       	breq	.+2      	; 0x302 <__ffind_E+0x60>
 300:	5a c0       	rjmp	.+180    	; 0x3b6 <__ffind_E+0x114>
 302:	81 e0       	ldi	r24, 0x01	; 1
 304:	90 e0       	ldi	r25, 0x00	; 0
 306:	9e 83       	std	Y+6, r25	; 0x06
 308:	8d 83       	std	Y+5, r24	; 0x05
 30a:	25 c0       	rjmp	.+74     	; 0x356 <__ffind_E+0xb4>
 30c:	8f 81       	ldd	r24, Y+7	; 0x07
 30e:	98 85       	ldd	r25, Y+8	; 0x08
 310:	2d 85       	ldd	r18, Y+13	; 0x0d
 312:	3e 85       	ldd	r19, Y+14	; 0x0e
 314:	82 0f       	add	r24, r18
 316:	93 1f       	adc	r25, r19
 318:	fc 01       	movw	r30, r24
 31a:	80 81       	ld	r24, Z
 31c:	28 2f       	mov	r18, r24
 31e:	88 0f       	add	r24, r24
 320:	33 0b       	sbc	r19, r19
 322:	4f 85       	ldd	r20, Y+15	; 0x0f
 324:	58 89       	ldd	r21, Y+16	; 0x10
 326:	8b 81       	ldd	r24, Y+3	; 0x03
 328:	9c 81       	ldd	r25, Y+4	; 0x04
 32a:	84 0f       	add	r24, r20
 32c:	95 1f       	adc	r25, r21
 32e:	05 96       	adiw	r24, 0x05	; 5
 330:	fc 01       	movw	r30, r24
 332:	80 81       	ld	r24, Z
 334:	88 2f       	mov	r24, r24
 336:	90 e0       	ldi	r25, 0x00	; 0
 338:	28 17       	cp	r18, r24
 33a:	39 07       	cpc	r19, r25
 33c:	11 f0       	breq	.+4      	; 0x342 <__ffind_E+0xa0>
 33e:	1e 82       	std	Y+6, r1	; 0x06
 340:	1d 82       	std	Y+5, r1	; 0x05
 342:	8b 81       	ldd	r24, Y+3	; 0x03
 344:	9c 81       	ldd	r25, Y+4	; 0x04
 346:	01 96       	adiw	r24, 0x01	; 1
 348:	9c 83       	std	Y+4, r25	; 0x04
 34a:	8b 83       	std	Y+3, r24	; 0x03
 34c:	8f 81       	ldd	r24, Y+7	; 0x07
 34e:	98 85       	ldd	r25, Y+8	; 0x08
 350:	01 96       	adiw	r24, 0x01	; 1
 352:	98 87       	std	Y+8, r25	; 0x08
 354:	8f 83       	std	Y+7, r24	; 0x07
 356:	8f 81       	ldd	r24, Y+7	; 0x07
 358:	98 85       	ldd	r25, Y+8	; 0x08
 35a:	2d 85       	ldd	r18, Y+13	; 0x0d
 35c:	3e 85       	ldd	r19, Y+14	; 0x0e
 35e:	82 0f       	add	r24, r18
 360:	93 1f       	adc	r25, r19
 362:	fc 01       	movw	r30, r24
 364:	80 81       	ld	r24, Z
 366:	8f 32       	cpi	r24, 0x2F	; 47
 368:	89 f6       	brne	.-94     	; 0x30c <__ffind_E+0x6a>
 36a:	8d 81       	ldd	r24, Y+5	; 0x05
 36c:	9e 81       	ldd	r25, Y+6	; 0x06
 36e:	89 2b       	or	r24, r25
 370:	89 f0       	breq	.+34     	; 0x394 <__ffind_E+0xf2>
 372:	8b 81       	ldd	r24, Y+3	; 0x03
 374:	9c 81       	ldd	r25, Y+4	; 0x04
 376:	0b 97       	sbiw	r24, 0x0b	; 11
 378:	6c f4       	brge	.+26     	; 0x394 <__ffind_E+0xf2>
 37a:	2f 85       	ldd	r18, Y+15	; 0x0f
 37c:	38 89       	ldd	r19, Y+16	; 0x10
 37e:	8b 81       	ldd	r24, Y+3	; 0x03
 380:	9c 81       	ldd	r25, Y+4	; 0x04
 382:	82 0f       	add	r24, r18
 384:	93 1f       	adc	r25, r19
 386:	05 96       	adiw	r24, 0x05	; 5
 388:	fc 01       	movw	r30, r24
 38a:	80 81       	ld	r24, Z
 38c:	88 23       	and	r24, r24
 38e:	11 f0       	breq	.+4      	; 0x394 <__ffind_E+0xf2>
 390:	1e 82       	std	Y+6, r1	; 0x06
 392:	1d 82       	std	Y+5, r1	; 0x05
 394:	8d 81       	ldd	r24, Y+5	; 0x05
 396:	9e 81       	ldd	r25, Y+6	; 0x06
 398:	89 2b       	or	r24, r25
 39a:	69 f0       	breq	.+26     	; 0x3b6 <__ffind_E+0x114>
 39c:	2f 81       	ldd	r18, Y+7	; 0x07
 39e:	38 85       	ldd	r19, Y+8	; 0x08
 3a0:	8b 85       	ldd	r24, Y+11	; 0x0b
 3a2:	9c 85       	ldd	r25, Y+12	; 0x0c
 3a4:	28 17       	cp	r18, r24
 3a6:	39 07       	cpc	r19, r25
 3a8:	8c f4       	brge	.+34     	; 0x3cc <__ffind_E+0x12a>
 3aa:	8f 85       	ldd	r24, Y+15	; 0x0f
 3ac:	98 89       	ldd	r25, Y+16	; 0x10
 3ae:	fc 01       	movw	r30, r24
 3b0:	82 81       	ldd	r24, Z+2	; 0x02
 3b2:	8a 83       	std	Y+2, r24	; 0x02
 3b4:	19 82       	std	Y+1, r1	; 0x01
 3b6:	1c 82       	std	Y+4, r1	; 0x04
 3b8:	1b 82       	std	Y+3, r1	; 0x03
 3ba:	8f 81       	ldd	r24, Y+7	; 0x07
 3bc:	98 85       	ldd	r25, Y+8	; 0x08
 3be:	01 96       	adiw	r24, 0x01	; 1
 3c0:	98 87       	std	Y+8, r25	; 0x08
 3c2:	8f 83       	std	Y+7, r24	; 0x07
 3c4:	89 81       	ldd	r24, Y+1	; 0x01
 3c6:	80 5f       	subi	r24, 0xF0	; 240
 3c8:	89 83       	std	Y+1, r24	; 0x01
 3ca:	85 cf       	rjmp	.-246    	; 0x2d6 <__ffind_E+0x34>
 3cc:	00 00       	nop
 3ce:	8d 81       	ldd	r24, Y+5	; 0x05
 3d0:	9e 81       	ldd	r25, Y+6	; 0x06
 3d2:	60 96       	adiw	r28, 0x10	; 16
 3d4:	0f b6       	in	r0, 0x3f	; 63
 3d6:	f8 94       	cli
 3d8:	de bf       	out	0x3e, r29	; 62
 3da:	0f be       	out	0x3f, r0	; 63
 3dc:	cd bf       	out	0x3d, r28	; 61
 3de:	df 91       	pop	r29
 3e0:	cf 91       	pop	r28
 3e2:	08 95       	ret

000003e4 <__call>:
 3e4:	cf 93       	push	r28
 3e6:	df 93       	push	r29
 3e8:	cd b7       	in	r28, 0x3d	; 61
 3ea:	de b7       	in	r29, 0x3e	; 62
 3ec:	67 97       	sbiw	r28, 0x17	; 23
 3ee:	0f b6       	in	r0, 0x3f	; 63
 3f0:	f8 94       	cli
 3f2:	de bf       	out	0x3e, r29	; 62
 3f4:	0f be       	out	0x3f, r0	; 63
 3f6:	cd bf       	out	0x3d, r28	; 61
 3f8:	8f 8b       	std	Y+23, r24	; 0x17
 3fa:	1a 82       	std	Y+2, r1	; 0x02
 3fc:	19 82       	std	Y+1, r1	; 0x01
 3fe:	1c 82       	std	Y+4, r1	; 0x04
 400:	1b 82       	std	Y+3, r1	; 0x03
 402:	ce 01       	movw	r24, r28
 404:	07 96       	adiw	r24, 0x07	; 7
 406:	bc 01       	movw	r22, r24
 408:	8f 89       	ldd	r24, Y+23	; 0x17
 40a:	0e 94 06 01 	call	0x20c	; 0x20c <__fstat_E>
 40e:	9c 83       	std	Y+4, r25	; 0x04
 410:	8b 83       	std	Y+3, r24	; 0x03
 412:	8b 81       	ldd	r24, Y+3	; 0x03
 414:	9c 81       	ldd	r25, Y+4	; 0x04
 416:	89 2b       	or	r24, r25
 418:	81 f0       	breq	.+32     	; 0x43a <__EEPROM_REGION_LENGTH__+0x3a>
 41a:	80 91 04 01 	lds	r24, 0x0104	; 0x800104 <__data_end+0x4>
 41e:	90 91 05 01 	lds	r25, 0x0105	; 0x800105 <__data_end+0x5>
 422:	9c 01       	movw	r18, r24
 424:	41 e2       	ldi	r20, 0x21	; 33
 426:	50 e0       	ldi	r21, 0x00	; 0
 428:	61 e0       	ldi	r22, 0x01	; 1
 42a:	70 e0       	ldi	r23, 0x00	; 0
 42c:	80 e2       	ldi	r24, 0x20	; 32
 42e:	99 e1       	ldi	r25, 0x19	; 25
 430:	0e 94 e0 03 	call	0x7c0	; 0x7c0 <fwrite>
 434:	8f ef       	ldi	r24, 0xFF	; 255
 436:	9f ef       	ldi	r25, 0xFF	; 255
 438:	15 c0       	rjmp	.+42     	; 0x464 <__EEPROM_REGION_LENGTH__+0x64>
 43a:	8f 81       	ldd	r24, Y+7	; 0x07
 43c:	88 2f       	mov	r24, r24
 43e:	90 e0       	ldi	r25, 0x00	; 0
 440:	88 96       	adiw	r24, 0x28	; 40
 442:	96 95       	lsr	r25
 444:	98 2f       	mov	r25, r24
 446:	88 27       	eor	r24, r24
 448:	97 95       	ror	r25
 44a:	87 95       	ror	r24
 44c:	9e 83       	std	Y+6, r25	; 0x06
 44e:	8d 83       	std	Y+5, r24	; 0x05
 450:	8d 81       	ldd	r24, Y+5	; 0x05
 452:	9e 81       	ldd	r25, Y+6	; 0x06
 454:	96 95       	lsr	r25
 456:	87 95       	ror	r24
 458:	9a 83       	std	Y+2, r25	; 0x02
 45a:	89 83       	std	Y+1, r24	; 0x01
 45c:	89 81       	ldd	r24, Y+1	; 0x01
 45e:	9a 81       	ldd	r25, Y+2	; 0x02
 460:	fc 01       	movw	r30, r24
 462:	09 95       	icall
 464:	67 96       	adiw	r28, 0x17	; 23
 466:	0f b6       	in	r0, 0x3f	; 63
 468:	f8 94       	cli
 46a:	de bf       	out	0x3e, r29	; 62
 46c:	0f be       	out	0x3f, r0	; 63
 46e:	cd bf       	out	0x3d, r28	; 61
 470:	df 91       	pop	r29
 472:	cf 91       	pop	r28
 474:	08 95       	ret

00000476 <escanf_P>:
 476:	cf 93       	push	r28
 478:	df 93       	push	r29
 47a:	cd b7       	in	r28, 0x3d	; 61
 47c:	de b7       	in	r29, 0x3e	; 62
 47e:	ca 56       	subi	r28, 0x6A	; 106
 480:	d1 09       	sbc	r29, r1
 482:	0f b6       	in	r0, 0x3f	; 63
 484:	f8 94       	cli
 486:	de bf       	out	0x3e, r29	; 62
 488:	0f be       	out	0x3f, r0	; 63
 48a:	cd bf       	out	0x3d, r28	; 61
 48c:	9e 01       	movw	r18, r28
 48e:	29 59       	subi	r18, 0x99	; 153
 490:	3f 4f       	sbci	r19, 0xFF	; 255
 492:	f9 01       	movw	r30, r18
 494:	91 83       	std	Z+1, r25	; 0x01
 496:	80 83       	st	Z, r24
 498:	ce 01       	movw	r24, r28
 49a:	87 59       	subi	r24, 0x97	; 151
 49c:	9f 4f       	sbci	r25, 0xFF	; 255
 49e:	fc 01       	movw	r30, r24
 4a0:	71 83       	std	Z+1, r23	; 0x01
 4a2:	60 83       	st	Z, r22
 4a4:	1a 82       	std	Y+2, r1	; 0x02
 4a6:	19 82       	std	Y+1, r1	; 0x01
 4a8:	80 91 00 01 	lds	r24, 0x0100	; 0x800100 <__data_end>
 4ac:	90 91 01 01 	lds	r25, 0x0101	; 0x800101 <__data_end+0x1>
 4b0:	0e 94 4a 00 	call	0x94	; 0x94 <__usart_receive_char>
 4b4:	48 2f       	mov	r20, r24
 4b6:	9e 01       	movw	r18, r28
 4b8:	2d 5f       	subi	r18, 0xFD	; 253
 4ba:	3f 4f       	sbci	r19, 0xFF	; 255
 4bc:	89 81       	ldd	r24, Y+1	; 0x01
 4be:	9a 81       	ldd	r25, Y+2	; 0x02
 4c0:	82 0f       	add	r24, r18
 4c2:	93 1f       	adc	r25, r19
 4c4:	fc 01       	movw	r30, r24
 4c6:	40 83       	st	Z, r20
 4c8:	9e 01       	movw	r18, r28
 4ca:	2d 5f       	subi	r18, 0xFD	; 253
 4cc:	3f 4f       	sbci	r19, 0xFF	; 255
 4ce:	89 81       	ldd	r24, Y+1	; 0x01
 4d0:	9a 81       	ldd	r25, Y+2	; 0x02
 4d2:	82 0f       	add	r24, r18
 4d4:	93 1f       	adc	r25, r19
 4d6:	fc 01       	movw	r30, r24
 4d8:	80 81       	ld	r24, Z
 4da:	8d 30       	cpi	r24, 0x0D	; 13
 4dc:	f1 f0       	breq	.+60     	; 0x51a <escanf_P+0xa4>
 4de:	40 91 02 01 	lds	r20, 0x0102	; 0x800102 <__data_end+0x2>
 4e2:	50 91 03 01 	lds	r21, 0x0103	; 0x800103 <__data_end+0x3>
 4e6:	9e 01       	movw	r18, r28
 4e8:	2d 5f       	subi	r18, 0xFD	; 253
 4ea:	3f 4f       	sbci	r19, 0xFF	; 255
 4ec:	89 81       	ldd	r24, Y+1	; 0x01
 4ee:	9a 81       	ldd	r25, Y+2	; 0x02
 4f0:	82 0f       	add	r24, r18
 4f2:	93 1f       	adc	r25, r19
 4f4:	fc 01       	movw	r30, r24
 4f6:	80 81       	ld	r24, Z
 4f8:	08 2e       	mov	r0, r24
 4fa:	00 0c       	add	r0, r0
 4fc:	99 0b       	sbc	r25, r25
 4fe:	ba 01       	movw	r22, r20
 500:	0e 94 b0 03 	call	0x760	; 0x760 <fputc>
 504:	89 81       	ldd	r24, Y+1	; 0x01
 506:	9a 81       	ldd	r25, Y+2	; 0x02
 508:	01 96       	adiw	r24, 0x01	; 1
 50a:	9a 83       	std	Y+2, r25	; 0x02
 50c:	89 83       	std	Y+1, r24	; 0x01
 50e:	89 81       	ldd	r24, Y+1	; 0x01
 510:	9a 81       	ldd	r25, Y+2	; 0x02
 512:	84 36       	cpi	r24, 0x64	; 100
 514:	91 05       	cpc	r25, r1
 516:	40 f2       	brcs	.-112    	; 0x4a8 <escanf_P+0x32>
 518:	01 c0       	rjmp	.+2      	; 0x51c <escanf_P+0xa6>
 51a:	00 00       	nop
 51c:	ce 01       	movw	r24, r28
 51e:	87 59       	subi	r24, 0x97	; 151
 520:	9f 4f       	sbci	r25, 0xFF	; 255
 522:	fc 01       	movw	r30, r24
 524:	21 81       	ldd	r18, Z+1	; 0x01
 526:	2f 93       	push	r18
 528:	fc 01       	movw	r30, r24
 52a:	80 81       	ld	r24, Z
 52c:	8f 93       	push	r24
 52e:	ce 01       	movw	r24, r28
 530:	89 59       	subi	r24, 0x99	; 153
 532:	9f 4f       	sbci	r25, 0xFF	; 255
 534:	fc 01       	movw	r30, r24
 536:	21 81       	ldd	r18, Z+1	; 0x01
 538:	2f 93       	push	r18
 53a:	fc 01       	movw	r30, r24
 53c:	80 81       	ld	r24, Z
 53e:	8f 93       	push	r24
 540:	ce 01       	movw	r24, r28
 542:	03 96       	adiw	r24, 0x03	; 3
 544:	29 2f       	mov	r18, r25
 546:	2f 93       	push	r18
 548:	8f 93       	push	r24
 54a:	0e 94 35 04 	call	0x86a	; 0x86a <sscanf_P>
 54e:	0f 90       	pop	r0
 550:	0f 90       	pop	r0
 552:	0f 90       	pop	r0
 554:	0f 90       	pop	r0
 556:	0f 90       	pop	r0
 558:	0f 90       	pop	r0
 55a:	c6 59       	subi	r28, 0x96	; 150
 55c:	df 4f       	sbci	r29, 0xFF	; 255
 55e:	0f b6       	in	r0, 0x3f	; 63
 560:	f8 94       	cli
 562:	de bf       	out	0x3e, r29	; 62
 564:	0f be       	out	0x3f, r0	; 63
 566:	cd bf       	out	0x3d, r28	; 61
 568:	df 91       	pop	r29
 56a:	cf 91       	pop	r28
 56c:	08 95       	ret

Disassembly of section .vectors:

0000056e <__vectors>:
 56e:	0c 94 eb 02 	jmp	0x5d6	; 0x5d6 <__init>
 572:	0c 94 00 00 	jmp	0	; 0x0 <__tmp_reg__>
 576:	0c 94 00 00 	jmp	0	; 0x0 <__tmp_reg__>
 57a:	0c 94 00 00 	jmp	0	; 0x0 <__tmp_reg__>
 57e:	0c 94 00 00 	jmp	0	; 0x0 <__tmp_reg__>
 582:	0c 94 00 00 	jmp	0	; 0x0 <__tmp_reg__>
 586:	0c 94 00 00 	jmp	0	; 0x0 <__tmp_reg__>
 58a:	0c 94 00 00 	jmp	0	; 0x0 <__tmp_reg__>
 58e:	0c 94 00 00 	jmp	0	; 0x0 <__tmp_reg__>
 592:	0c 94 00 00 	jmp	0	; 0x0 <__tmp_reg__>
 596:	0c 94 00 00 	jmp	0	; 0x0 <__tmp_reg__>
 59a:	0c 94 00 00 	jmp	0	; 0x0 <__tmp_reg__>
 59e:	0c 94 00 00 	jmp	0	; 0x0 <__tmp_reg__>
 5a2:	0c 94 00 00 	jmp	0	; 0x0 <__tmp_reg__>
 5a6:	0c 94 00 00 	jmp	0	; 0x0 <__tmp_reg__>
 5aa:	0c 94 00 00 	jmp	0	; 0x0 <__tmp_reg__>
 5ae:	0c 94 00 00 	jmp	0	; 0x0 <__tmp_reg__>
 5b2:	0c 94 00 00 	jmp	0	; 0x0 <__tmp_reg__>
 5b6:	0c 94 00 00 	jmp	0	; 0x0 <__tmp_reg__>
 5ba:	0c 94 00 00 	jmp	0	; 0x0 <__tmp_reg__>
 5be:	0c 94 00 00 	jmp	0	; 0x0 <__tmp_reg__>
 5c2:	0c 94 00 00 	jmp	0	; 0x0 <__tmp_reg__>
 5c6:	0c 94 00 00 	jmp	0	; 0x0 <__tmp_reg__>
 5ca:	0c 94 00 00 	jmp	0	; 0x0 <__tmp_reg__>
 5ce:	0c 94 00 00 	jmp	0	; 0x0 <__tmp_reg__>
 5d2:	0c 94 00 00 	jmp	0	; 0x0 <__tmp_reg__>

Disassembly of section .init2:

000005d6 <__init>:
 5d6:	11 24       	eor	r1, r1
 5d8:	1f be       	out	0x3f, r1	; 63
 5da:	cf ef       	ldi	r28, 0xFF	; 255
 5dc:	d8 e0       	ldi	r29, 0x08	; 8
 5de:	de bf       	out	0x3e, r29	; 62
 5e0:	cd bf       	out	0x3d, r28	; 61

Disassembly of section .init9:

000005e2 <.init9>:
 5e2:	0e 94 f5 02 	call	0x5ea	; 0x5ea <main>
 5e6:	0c 94 89 03 	jmp	0x712	; 0x712 <_exit>

Disassembly of section .kernel_main:

000005ea <main>:
 5ea:	cf 93       	push	r28
 5ec:	df 93       	push	r29
 5ee:	cd b7       	in	r28, 0x3d	; 61
 5f0:	de b7       	in	r29, 0x3e	; 62
 5f2:	6c 97       	sbiw	r28, 0x1c	; 28
 5f4:	0f b6       	in	r0, 0x3f	; 63
 5f6:	f8 94       	cli
 5f8:	de bf       	out	0x3e, r29	; 62
 5fa:	0f be       	out	0x3f, r0	; 63
 5fc:	cd bf       	out	0x3d, r28	; 61
 5fe:	2e e0       	ldi	r18, 0x0E	; 14
 600:	ce 01       	movw	r24, r28
 602:	01 96       	adiw	r24, 0x01	; 1
 604:	fc 01       	movw	r30, r24
 606:	32 2f       	mov	r19, r18
 608:	11 92       	st	Z+, r1
 60a:	3a 95       	dec	r19
 60c:	e9 f7       	brne	.-6      	; 0x608 <main+0x1e>
 60e:	82 e0       	ldi	r24, 0x02	; 2
 610:	8c 83       	std	Y+4, r24	; 0x04
 612:	8e e2       	ldi	r24, 0x2E	; 46
 614:	90 e0       	ldi	r25, 0x00	; 0
 616:	9a 87       	std	Y+10, r25	; 0x0a
 618:	89 87       	std	Y+9, r24	; 0x09
 61a:	2e e0       	ldi	r18, 0x0E	; 14
 61c:	ce 01       	movw	r24, r28
 61e:	0f 96       	adiw	r24, 0x0f	; 15
 620:	fc 01       	movw	r30, r24
 622:	32 2f       	mov	r19, r18
 624:	11 92       	st	Z+, r1
 626:	3a 95       	dec	r19
 628:	e9 f7       	brne	.-6      	; 0x624 <main+0x3a>
 62a:	81 e0       	ldi	r24, 0x01	; 1
 62c:	8a 8b       	std	Y+18, r24	; 0x12
 62e:	8a e4       	ldi	r24, 0x4A	; 74
 630:	90 e0       	ldi	r25, 0x00	; 0
 632:	9a 8f       	std	Y+26, r25	; 0x1a
 634:	89 8f       	std	Y+25, r24	; 0x19
 636:	ce 01       	movw	r24, r28
 638:	01 96       	adiw	r24, 0x01	; 1
 63a:	90 93 03 01 	sts	0x0103, r25	; 0x800103 <__data_load_start+0x3>
 63e:	80 93 02 01 	sts	0x0102, r24	; 0x800102 <__data_load_start+0x2>
 642:	ce 01       	movw	r24, r28
 644:	01 96       	adiw	r24, 0x01	; 1
 646:	90 93 05 01 	sts	0x0105, r25	; 0x800105 <__data_load_start+0x5>
 64a:	80 93 04 01 	sts	0x0104, r24	; 0x800104 <__data_load_start+0x4>
 64e:	ce 01       	movw	r24, r28
 650:	0f 96       	adiw	r24, 0x0f	; 15
 652:	90 93 01 01 	sts	0x0101, r25	; 0x800101 <__data_load_start+0x1>
 656:	80 93 00 01 	sts	0x0100, r24	; 0x800100 <__data_load_start>
 65a:	0e 94 02 00 	call	0x4	; 0x4 <__usart_init>
 65e:	8c e8       	ldi	r24, 0x8C	; 140
 660:	98 e1       	ldi	r25, 0x18	; 24
 662:	89 2f       	mov	r24, r25
 664:	8f 93       	push	r24
 666:	8c e8       	ldi	r24, 0x8C	; 140
 668:	98 e1       	ldi	r25, 0x18	; 24
 66a:	8f 93       	push	r24
 66c:	0e 94 10 04 	call	0x820	; 0x820 <printf_P>
 670:	0f 90       	pop	r0
 672:	0f 90       	pop	r0
 674:	8e e9       	ldi	r24, 0x9E	; 158
 676:	98 e1       	ldi	r25, 0x18	; 24
 678:	89 2f       	mov	r24, r25
 67a:	8f 93       	push	r24
 67c:	8e e9       	ldi	r24, 0x9E	; 158
 67e:	98 e1       	ldi	r25, 0x18	; 24
 680:	8f 93       	push	r24
 682:	0e 94 10 04 	call	0x820	; 0x820 <printf_P>
 686:	0f 90       	pop	r0
 688:	0f 90       	pop	r0
 68a:	0e 94 00 0c 	call	0x1800	; 0x1800 <mshell>
 68e:	80 e0       	ldi	r24, 0x00	; 0
 690:	90 e0       	ldi	r25, 0x00	; 0
 692:	6c 96       	adiw	r28, 0x1c	; 28
 694:	0f b6       	in	r0, 0x3f	; 63
 696:	f8 94       	cli
 698:	de bf       	out	0x3e, r29	; 62
 69a:	0f be       	out	0x3f, r0	; 63
 69c:	cd bf       	out	0x3d, r28	; 61
 69e:	df 91       	pop	r29
 6a0:	cf 91       	pop	r28
 6a2:	08 95       	ret

Disassembly of section .text.libgcc.prologue:

000006a4 <__prologue_saves__>:
 6a4:	2f 92       	push	r2
 6a6:	3f 92       	push	r3
 6a8:	4f 92       	push	r4
 6aa:	5f 92       	push	r5
 6ac:	6f 92       	push	r6
 6ae:	7f 92       	push	r7
 6b0:	8f 92       	push	r8
 6b2:	9f 92       	push	r9
 6b4:	af 92       	push	r10
 6b6:	bf 92       	push	r11
 6b8:	cf 92       	push	r12
 6ba:	df 92       	push	r13
 6bc:	ef 92       	push	r14
 6be:	ff 92       	push	r15
 6c0:	0f 93       	push	r16
 6c2:	1f 93       	push	r17
 6c4:	cf 93       	push	r28
 6c6:	df 93       	push	r29
 6c8:	cd b7       	in	r28, 0x3d	; 61
 6ca:	de b7       	in	r29, 0x3e	; 62
 6cc:	ca 1b       	sub	r28, r26
 6ce:	db 0b       	sbc	r29, r27
 6d0:	0f b6       	in	r0, 0x3f	; 63
 6d2:	f8 94       	cli
 6d4:	de bf       	out	0x3e, r29	; 62
 6d6:	0f be       	out	0x3f, r0	; 63
 6d8:	cd bf       	out	0x3d, r28	; 61
 6da:	09 94       	ijmp

000006dc <__epilogue_restores__>:
 6dc:	2a 88       	ldd	r2, Y+18	; 0x12
 6de:	39 88       	ldd	r3, Y+17	; 0x11
 6e0:	48 88       	ldd	r4, Y+16	; 0x10
 6e2:	5f 84       	ldd	r5, Y+15	; 0x0f
 6e4:	6e 84       	ldd	r6, Y+14	; 0x0e
 6e6:	7d 84       	ldd	r7, Y+13	; 0x0d
 6e8:	8c 84       	ldd	r8, Y+12	; 0x0c
 6ea:	9b 84       	ldd	r9, Y+11	; 0x0b
 6ec:	aa 84       	ldd	r10, Y+10	; 0x0a
 6ee:	b9 84       	ldd	r11, Y+9	; 0x09
 6f0:	c8 84       	ldd	r12, Y+8	; 0x08
 6f2:	df 80       	ldd	r13, Y+7	; 0x07
 6f4:	ee 80       	ldd	r14, Y+6	; 0x06
 6f6:	fd 80       	ldd	r15, Y+5	; 0x05
 6f8:	0c 81       	ldd	r16, Y+4	; 0x04
 6fa:	1b 81       	ldd	r17, Y+3	; 0x03
 6fc:	aa 81       	ldd	r26, Y+2	; 0x02
 6fe:	b9 81       	ldd	r27, Y+1	; 0x01
 700:	ce 0f       	add	r28, r30
 702:	d1 1d       	adc	r29, r1
 704:	0f b6       	in	r0, 0x3f	; 63
 706:	f8 94       	cli
 708:	de bf       	out	0x3e, r29	; 62
 70a:	0f be       	out	0x3f, r0	; 63
 70c:	cd bf       	out	0x3d, r28	; 61
 70e:	ed 01       	movw	r28, r26
 710:	08 95       	ret

Disassembly of section .fini0:

00000712 <_exit>:
 712:	f8 94       	cli

00000714 <__stop_program>:
 714:	ff cf       	rjmp	.-2      	; 0x714 <__stop_program>

Disassembly of section .init4:

00000716 <__do_copy_data>:
 716:	11 e0       	ldi	r17, 0x01	; 1
 718:	a0 e0       	ldi	r26, 0x00	; 0
 71a:	b1 e0       	ldi	r27, 0x01	; 1
 71c:	e0 e0       	ldi	r30, 0x00	; 0
 71e:	f1 e0       	ldi	r31, 0x01	; 1
 720:	02 c0       	rjmp	.+4      	; 0x726 <__do_copy_data+0x10>
 722:	05 90       	lpm	r0, Z+
 724:	0d 92       	st	X+, r0
 726:	a0 30       	cpi	r26, 0x00	; 0
 728:	b1 07       	cpc	r27, r17
 72a:	d9 f7       	brne	.-10     	; 0x722 <__do_copy_data+0xc>

0000072c <__do_clear_bss>:
 72c:	21 e0       	ldi	r18, 0x01	; 1
 72e:	a0 e0       	ldi	r26, 0x00	; 0
 730:	b1 e0       	ldi	r27, 0x01	; 1
 732:	01 c0       	rjmp	.+2      	; 0x736 <.do_clear_bss_start>

00000734 <.do_clear_bss_loop>:
 734:	1d 92       	st	X+, r1

00000736 <.do_clear_bss_start>:
 736:	a0 30       	cpi	r26, 0x00	; 0
 738:	b2 07       	cpc	r27, r18
 73a:	e1 f7       	brne	.-8      	; 0x734 <.do_clear_bss_loop>

Disassembly of section .text.avr-libc:

0000073c <strcpy_P>:
     73c:	fb 01       	movw	r30, r22
     73e:	dc 01       	movw	r26, r24
     740:	05 90       	lpm	r0, Z+
     742:	0d 92       	st	X+, r0
     744:	00 20       	and	r0, r0
     746:	e1 f7       	brne	.-8      	; 0x740 <strcpy_P+0x4>
     748:	08 95       	ret

0000074a <strcat>:
     74a:	fb 01       	movw	r30, r22
     74c:	dc 01       	movw	r26, r24
     74e:	0d 90       	ld	r0, X+
     750:	00 20       	and	r0, r0
     752:	e9 f7       	brne	.-6      	; 0x74e <strcat+0x4>
     754:	11 97       	sbiw	r26, 0x01	; 1
     756:	01 90       	ld	r0, Z+
     758:	0d 92       	st	X+, r0
     75a:	00 20       	and	r0, r0
     75c:	e1 f7       	brne	.-8      	; 0x756 <strcat+0xc>
     75e:	08 95       	ret

00000760 <fputc>:
     760:	0f 93       	push	r16
     762:	1f 93       	push	r17
     764:	cf 93       	push	r28
     766:	df 93       	push	r29
     768:	18 2f       	mov	r17, r24
     76a:	09 2f       	mov	r16, r25
     76c:	eb 01       	movw	r28, r22
     76e:	8b 81       	ldd	r24, Y+3	; 0x03
     770:	81 fd       	sbrc	r24, 1
     772:	09 c0       	rjmp	.+18     	; 0x786 <fputc+0x26>
     774:	1f ef       	ldi	r17, 0xFF	; 255
     776:	0f ef       	ldi	r16, 0xFF	; 255
     778:	81 2f       	mov	r24, r17
     77a:	90 2f       	mov	r25, r16
     77c:	df 91       	pop	r29
     77e:	cf 91       	pop	r28
     780:	1f 91       	pop	r17
     782:	0f 91       	pop	r16
     784:	08 95       	ret
     786:	82 ff       	sbrs	r24, 2
     788:	14 c0       	rjmp	.+40     	; 0x7b2 <fputc+0x52>
     78a:	2e 81       	ldd	r18, Y+6	; 0x06
     78c:	3f 81       	ldd	r19, Y+7	; 0x07
     78e:	8c 81       	ldd	r24, Y+4	; 0x04
     790:	9d 81       	ldd	r25, Y+5	; 0x05
     792:	28 17       	cp	r18, r24
     794:	39 07       	cpc	r19, r25
     796:	3c f4       	brge	.+14     	; 0x7a6 <fputc+0x46>
     798:	e8 81       	ld	r30, Y
     79a:	f9 81       	ldd	r31, Y+1	; 0x01
     79c:	cf 01       	movw	r24, r30
     79e:	01 96       	adiw	r24, 0x01	; 1
     7a0:	99 83       	std	Y+1, r25	; 0x01
     7a2:	88 83       	st	Y, r24
     7a4:	10 83       	st	Z, r17
     7a6:	8e 81       	ldd	r24, Y+6	; 0x06
     7a8:	9f 81       	ldd	r25, Y+7	; 0x07
     7aa:	01 96       	adiw	r24, 0x01	; 1
     7ac:	9f 83       	std	Y+7, r25	; 0x07
     7ae:	8e 83       	std	Y+6, r24	; 0x06
     7b0:	e3 cf       	rjmp	.-58     	; 0x778 <fputc+0x18>
     7b2:	e8 85       	ldd	r30, Y+8	; 0x08
     7b4:	f9 85       	ldd	r31, Y+9	; 0x09
     7b6:	81 2f       	mov	r24, r17
     7b8:	09 95       	icall
     7ba:	89 2b       	or	r24, r25
     7bc:	a1 f3       	breq	.-24     	; 0x7a6 <fputc+0x46>
     7be:	da cf       	rjmp	.-76     	; 0x774 <fputc+0x14>

000007c0 <fwrite>:
     7c0:	b0 e0       	ldi	r27, 0x00	; 0
     7c2:	a0 e0       	ldi	r26, 0x00	; 0
     7c4:	e6 ee       	ldi	r30, 0xE6	; 230
     7c6:	f3 e0       	ldi	r31, 0x03	; 3
     7c8:	0c 94 58 03 	jmp	0x6b0	; 0x6b0 <__prologue_saves__+0xc>
     7cc:	5b 01       	movw	r10, r22
     7ce:	4a 01       	movw	r8, r20
     7d0:	79 01       	movw	r14, r18
     7d2:	d9 01       	movw	r26, r18
     7d4:	13 96       	adiw	r26, 0x03	; 3
     7d6:	2c 91       	ld	r18, X
     7d8:	d0 e0       	ldi	r29, 0x00	; 0
     7da:	c0 e0       	ldi	r28, 0x00	; 0
     7dc:	21 ff       	sbrs	r18, 1
     7de:	1a c0       	rjmp	.+52     	; 0x814 <__DATA_REGION_LENGTH__+0x14>
     7e0:	c8 15       	cp	r28, r8
     7e2:	d9 05       	cpc	r29, r9
     7e4:	b9 f0       	breq	.+46     	; 0x814 <__DATA_REGION_LENGTH__+0x14>
     7e6:	8c 01       	movw	r16, r24
     7e8:	6c 01       	movw	r12, r24
     7ea:	ca 0c       	add	r12, r10
     7ec:	db 1c       	adc	r13, r11
     7ee:	0c c0       	rjmp	.+24     	; 0x808 <__DATA_REGION_LENGTH__+0x8>
     7f0:	0f 5f       	subi	r16, 0xFF	; 255
     7f2:	1f 4f       	sbci	r17, 0xFF	; 255
     7f4:	d7 01       	movw	r26, r14
     7f6:	18 96       	adiw	r26, 0x08	; 8
     7f8:	ed 91       	ld	r30, X+
     7fa:	fc 91       	ld	r31, X
     7fc:	b7 01       	movw	r22, r14
     7fe:	dc 01       	movw	r26, r24
     800:	8c 91       	ld	r24, X
     802:	09 95       	icall
     804:	89 2b       	or	r24, r25
     806:	31 f4       	brne	.+12     	; 0x814 <__DATA_REGION_LENGTH__+0x14>
     808:	c8 01       	movw	r24, r16
     80a:	0c 15       	cp	r16, r12
     80c:	1d 05       	cpc	r17, r13
     80e:	81 f7       	brne	.-32     	; 0x7f0 <fwrite+0x30>
     810:	21 96       	adiw	r28, 0x01	; 1
     812:	e6 cf       	rjmp	.-52     	; 0x7e0 <fwrite+0x20>
     814:	ce 01       	movw	r24, r28
     816:	cd b7       	in	r28, 0x3d	; 61
     818:	de b7       	in	r29, 0x3e	; 62
     81a:	ec e0       	ldi	r30, 0x0C	; 12
     81c:	0c 94 74 03 	jmp	0x6e8	; 0x6e8 <__epilogue_restores__+0xc>

00000820 <printf_P>:
     820:	b0 e0       	ldi	r27, 0x00	; 0
     822:	a0 e0       	ldi	r26, 0x00	; 0
     824:	e6 e1       	ldi	r30, 0x16	; 22
     826:	f4 e0       	ldi	r31, 0x04	; 4
     828:	0c 94 60 03 	jmp	0x6c0	; 0x6c0 <__prologue_saves__+0x1c>
     82c:	ae 01       	movw	r20, r28
     82e:	49 5f       	subi	r20, 0xF9	; 249
     830:	5f 4f       	sbci	r21, 0xFF	; 255
     832:	da 01       	movw	r26, r20
     834:	6d 91       	ld	r22, X+
     836:	7d 91       	ld	r23, X+
     838:	ad 01       	movw	r20, r26
     83a:	00 e0       	ldi	r16, 0x00	; 0
     83c:	11 e0       	ldi	r17, 0x01	; 1
     83e:	f8 01       	movw	r30, r16
     840:	82 81       	ldd	r24, Z+2	; 0x02
     842:	93 81       	ldd	r25, Z+3	; 0x03
     844:	dc 01       	movw	r26, r24
     846:	13 96       	adiw	r26, 0x03	; 3
     848:	2c 91       	ld	r18, X
     84a:	13 97       	sbiw	r26, 0x03	; 3
     84c:	28 60       	ori	r18, 0x08	; 8
     84e:	13 96       	adiw	r26, 0x03	; 3
     850:	2c 93       	st	X, r18
     852:	0e 94 4e 04 	call	0x89c	; 0x89c <vfprintf>
     856:	d8 01       	movw	r26, r16
     858:	12 96       	adiw	r26, 0x02	; 2
     85a:	ed 91       	ld	r30, X+
     85c:	fc 91       	ld	r31, X
     85e:	23 81       	ldd	r18, Z+3	; 0x03
     860:	27 7f       	andi	r18, 0xF7	; 247
     862:	23 83       	std	Z+3, r18	; 0x03
     864:	e4 e0       	ldi	r30, 0x04	; 4
     866:	0c 94 7c 03 	jmp	0x6f8	; 0x6f8 <__epilogue_restores__+0x1c>

0000086a <sscanf_P>:
     86a:	ae e0       	ldi	r26, 0x0E	; 14
     86c:	b0 e0       	ldi	r27, 0x00	; 0
     86e:	eb e3       	ldi	r30, 0x3B	; 59
     870:	f4 e0       	ldi	r31, 0x04	; 4
     872:	0c 94 62 03 	jmp	0x6c4	; 0x6c4 <__prologue_saves__+0x20>
     876:	8d e0       	ldi	r24, 0x0D	; 13
     878:	8c 83       	std	Y+4, r24	; 0x04
     87a:	8b 89       	ldd	r24, Y+19	; 0x13
     87c:	9c 89       	ldd	r25, Y+20	; 0x14
     87e:	9a 83       	std	Y+2, r25	; 0x02
     880:	89 83       	std	Y+1, r24	; 0x01
     882:	ae 01       	movw	r20, r28
     884:	49 5e       	subi	r20, 0xE9	; 233
     886:	5f 4f       	sbci	r21, 0xFF	; 255
     888:	6d 89       	ldd	r22, Y+21	; 0x15
     88a:	7e 89       	ldd	r23, Y+22	; 0x16
     88c:	ce 01       	movw	r24, r28
     88e:	01 96       	adiw	r24, 0x01	; 1
     890:	0e 94 b3 07 	call	0xf66	; 0xf66 <vfscanf>
     894:	2e 96       	adiw	r28, 0x0e	; 14
     896:	e2 e0       	ldi	r30, 0x02	; 2
     898:	0c 94 7e 03 	jmp	0x6fc	; 0x6fc <__epilogue_restores__+0x20>

0000089c <vfprintf>:
     89c:	ab e0       	ldi	r26, 0x0B	; 11
     89e:	b0 e0       	ldi	r27, 0x00	; 0
     8a0:	e4 e5       	ldi	r30, 0x54	; 84
     8a2:	f4 e0       	ldi	r31, 0x04	; 4
     8a4:	0c 94 52 03 	jmp	0x6a4	; 0x6a4 <__prologue_saves__>
     8a8:	7c 01       	movw	r14, r24
     8aa:	3b 01       	movw	r6, r22
     8ac:	8a 01       	movw	r16, r20
     8ae:	fc 01       	movw	r30, r24
     8b0:	17 82       	std	Z+7, r1	; 0x07
     8b2:	16 82       	std	Z+6, r1	; 0x06
     8b4:	83 81       	ldd	r24, Z+3	; 0x03
     8b6:	81 ff       	sbrs	r24, 1
     8b8:	c8 c1       	rjmp	.+912    	; 0xc4a <__stack+0x34b>
     8ba:	ce 01       	movw	r24, r28
     8bc:	01 96       	adiw	r24, 0x01	; 1
     8be:	5c 01       	movw	r10, r24
     8c0:	f7 01       	movw	r30, r14
     8c2:	93 81       	ldd	r25, Z+3	; 0x03
     8c4:	f3 01       	movw	r30, r6
     8c6:	93 fd       	sbrc	r25, 3
     8c8:	85 91       	lpm	r24, Z+
     8ca:	93 ff       	sbrs	r25, 3
     8cc:	81 91       	ld	r24, Z+
     8ce:	3f 01       	movw	r6, r30
     8d0:	88 23       	and	r24, r24
     8d2:	09 f4       	brne	.+2      	; 0x8d6 <vfprintf+0x3a>
     8d4:	53 c1       	rjmp	.+678    	; 0xb7c <__stack+0x27d>
     8d6:	85 32       	cpi	r24, 0x25	; 37
     8d8:	39 f4       	brne	.+14     	; 0x8e8 <vfprintf+0x4c>
     8da:	93 fd       	sbrc	r25, 3
     8dc:	85 91       	lpm	r24, Z+
     8de:	93 ff       	sbrs	r25, 3
     8e0:	81 91       	ld	r24, Z+
     8e2:	3f 01       	movw	r6, r30
     8e4:	85 32       	cpi	r24, 0x25	; 37
     8e6:	29 f4       	brne	.+10     	; 0x8f2 <vfprintf+0x56>
     8e8:	b7 01       	movw	r22, r14
     8ea:	90 e0       	ldi	r25, 0x00	; 0
     8ec:	0e 94 b0 03 	call	0x760	; 0x760 <fputc>
     8f0:	e7 cf       	rjmp	.-50     	; 0x8c0 <vfprintf+0x24>
     8f2:	91 2c       	mov	r9, r1
     8f4:	21 2c       	mov	r2, r1
     8f6:	31 2c       	mov	r3, r1
     8f8:	ff e1       	ldi	r31, 0x1F	; 31
     8fa:	f3 15       	cp	r31, r3
     8fc:	38 f0       	brcs	.+14     	; 0x90c <__stack+0xd>
     8fe:	8b 32       	cpi	r24, 0x2B	; 43
     900:	11 f1       	breq	.+68     	; 0x946 <__stack+0x47>
     902:	90 f4       	brcc	.+36     	; 0x928 <__stack+0x29>
     904:	80 32       	cpi	r24, 0x20	; 32
     906:	09 f1       	breq	.+66     	; 0x94a <__stack+0x4b>
     908:	83 32       	cpi	r24, 0x23	; 35
     90a:	29 f1       	breq	.+74     	; 0x956 <__stack+0x57>
     90c:	37 fc       	sbrc	r3, 7
     90e:	3c c0       	rjmp	.+120    	; 0x988 <__stack+0x89>
     910:	20 ed       	ldi	r18, 0xD0	; 208
     912:	28 0f       	add	r18, r24
     914:	2a 30       	cpi	r18, 0x0A	; 10
     916:	50 f5       	brcc	.+84     	; 0x96c <__stack+0x6d>
     918:	36 fe       	sbrs	r3, 6
     91a:	20 c0       	rjmp	.+64     	; 0x95c <__stack+0x5d>
     91c:	8a e0       	ldi	r24, 0x0A	; 10
     91e:	98 9e       	mul	r9, r24
     920:	20 0d       	add	r18, r0
     922:	11 24       	eor	r1, r1
     924:	92 2e       	mov	r9, r18
     926:	06 c0       	rjmp	.+12     	; 0x934 <__stack+0x35>
     928:	8d 32       	cpi	r24, 0x2D	; 45
     92a:	91 f0       	breq	.+36     	; 0x950 <__stack+0x51>
     92c:	80 33       	cpi	r24, 0x30	; 48
     92e:	71 f7       	brne	.-36     	; 0x90c <__stack+0xd>
     930:	68 94       	set
     932:	30 f8       	bld	r3, 0
     934:	f3 01       	movw	r30, r6
     936:	93 fd       	sbrc	r25, 3
     938:	85 91       	lpm	r24, Z+
     93a:	93 ff       	sbrs	r25, 3
     93c:	81 91       	ld	r24, Z+
     93e:	3f 01       	movw	r6, r30
     940:	81 11       	cpse	r24, r1
     942:	da cf       	rjmp	.-76     	; 0x8f8 <vfprintf+0x5c>
     944:	21 c0       	rjmp	.+66     	; 0x988 <__stack+0x89>
     946:	68 94       	set
     948:	31 f8       	bld	r3, 1
     94a:	68 94       	set
     94c:	32 f8       	bld	r3, 2
     94e:	f2 cf       	rjmp	.-28     	; 0x934 <__stack+0x35>
     950:	68 94       	set
     952:	33 f8       	bld	r3, 3
     954:	ef cf       	rjmp	.-34     	; 0x934 <__stack+0x35>
     956:	68 94       	set
     958:	34 f8       	bld	r3, 4
     95a:	ec cf       	rjmp	.-40     	; 0x934 <__stack+0x35>
     95c:	ea e0       	ldi	r30, 0x0A	; 10
     95e:	2e 9e       	mul	r2, r30
     960:	20 0d       	add	r18, r0
     962:	11 24       	eor	r1, r1
     964:	22 2e       	mov	r2, r18
     966:	68 94       	set
     968:	35 f8       	bld	r3, 5
     96a:	e4 cf       	rjmp	.-56     	; 0x934 <__stack+0x35>
     96c:	8e 32       	cpi	r24, 0x2E	; 46
     96e:	29 f4       	brne	.+10     	; 0x97a <__stack+0x7b>
     970:	36 fc       	sbrc	r3, 6
     972:	04 c1       	rjmp	.+520    	; 0xb7c <__stack+0x27d>
     974:	68 94       	set
     976:	36 f8       	bld	r3, 6
     978:	dd cf       	rjmp	.-70     	; 0x934 <__stack+0x35>
     97a:	8c 36       	cpi	r24, 0x6C	; 108
     97c:	19 f4       	brne	.+6      	; 0x984 <__stack+0x85>
     97e:	68 94       	set
     980:	37 f8       	bld	r3, 7
     982:	d8 cf       	rjmp	.-80     	; 0x934 <__stack+0x35>
     984:	88 36       	cpi	r24, 0x68	; 104
     986:	b1 f2       	breq	.-84     	; 0x934 <__stack+0x35>
     988:	98 2f       	mov	r25, r24
     98a:	9f 7d       	andi	r25, 0xDF	; 223
     98c:	95 54       	subi	r25, 0x45	; 69
     98e:	93 30       	cpi	r25, 0x03	; 3
     990:	e0 f0       	brcs	.+56     	; 0x9ca <__stack+0xcb>
     992:	83 36       	cpi	r24, 0x63	; 99
     994:	a1 f1       	breq	.+104    	; 0x9fe <__stack+0xff>
     996:	83 37       	cpi	r24, 0x73	; 115
     998:	c1 f1       	breq	.+112    	; 0xa0a <__stack+0x10b>
     99a:	83 35       	cpi	r24, 0x53	; 83
     99c:	09 f0       	breq	.+2      	; 0x9a0 <__stack+0xa1>
     99e:	63 c0       	rjmp	.+198    	; 0xa66 <__stack+0x167>
     9a0:	28 01       	movw	r4, r16
     9a2:	f2 e0       	ldi	r31, 0x02	; 2
     9a4:	4f 0e       	add	r4, r31
     9a6:	51 1c       	adc	r5, r1
     9a8:	f8 01       	movw	r30, r16
     9aa:	c0 80       	ld	r12, Z
     9ac:	d1 80       	ldd	r13, Z+1	; 0x01
     9ae:	69 2d       	mov	r22, r9
     9b0:	70 e0       	ldi	r23, 0x00	; 0
     9b2:	36 fc       	sbrc	r3, 6
     9b4:	02 c0       	rjmp	.+4      	; 0x9ba <__stack+0xbb>
     9b6:	6f ef       	ldi	r22, 0xFF	; 255
     9b8:	7f ef       	ldi	r23, 0xFF	; 255
     9ba:	c6 01       	movw	r24, r12
     9bc:	0e 94 cc 08 	call	0x1198	; 0x1198 <strnlen_P>
     9c0:	4c 01       	movw	r8, r24
     9c2:	68 94       	set
     9c4:	37 f8       	bld	r3, 7
     9c6:	82 01       	movw	r16, r4
     9c8:	0a c0       	rjmp	.+20     	; 0x9de <__stack+0xdf>
     9ca:	0c 5f       	subi	r16, 0xFC	; 252
     9cc:	1f 4f       	sbci	r17, 0xFF	; 255
     9ce:	ff e3       	ldi	r31, 0x3F	; 63
     9d0:	f9 83       	std	Y+1, r31	; 0x01
     9d2:	88 24       	eor	r8, r8
     9d4:	83 94       	inc	r8
     9d6:	91 2c       	mov	r9, r1
     9d8:	65 01       	movw	r12, r10
     9da:	e8 94       	clt
     9dc:	37 f8       	bld	r3, 7
     9de:	33 fe       	sbrs	r3, 3
     9e0:	2d c0       	rjmp	.+90     	; 0xa3c <__stack+0x13d>
     9e2:	52 2c       	mov	r5, r2
     9e4:	81 14       	cp	r8, r1
     9e6:	91 04       	cpc	r9, r1
     9e8:	71 f5       	brne	.+92     	; 0xa46 <__stack+0x147>
     9ea:	55 20       	and	r5, r5
     9ec:	09 f4       	brne	.+2      	; 0x9f0 <__stack+0xf1>
     9ee:	68 cf       	rjmp	.-304    	; 0x8c0 <vfprintf+0x24>
     9f0:	b7 01       	movw	r22, r14
     9f2:	80 e2       	ldi	r24, 0x20	; 32
     9f4:	90 e0       	ldi	r25, 0x00	; 0
     9f6:	0e 94 b0 03 	call	0x760	; 0x760 <fputc>
     9fa:	5a 94       	dec	r5
     9fc:	f6 cf       	rjmp	.-20     	; 0x9ea <__stack+0xeb>
     9fe:	f8 01       	movw	r30, r16
     a00:	80 81       	ld	r24, Z
     a02:	89 83       	std	Y+1, r24	; 0x01
     a04:	0e 5f       	subi	r16, 0xFE	; 254
     a06:	1f 4f       	sbci	r17, 0xFF	; 255
     a08:	e4 cf       	rjmp	.-56     	; 0x9d2 <__stack+0xd3>
     a0a:	28 01       	movw	r4, r16
     a0c:	f2 e0       	ldi	r31, 0x02	; 2
     a0e:	4f 0e       	add	r4, r31
     a10:	51 1c       	adc	r5, r1
     a12:	f8 01       	movw	r30, r16
     a14:	c0 80       	ld	r12, Z
     a16:	d1 80       	ldd	r13, Z+1	; 0x01
     a18:	69 2d       	mov	r22, r9
     a1a:	70 e0       	ldi	r23, 0x00	; 0
     a1c:	36 fc       	sbrc	r3, 6
     a1e:	02 c0       	rjmp	.+4      	; 0xa24 <__stack+0x125>
     a20:	6f ef       	ldi	r22, 0xFF	; 255
     a22:	7f ef       	ldi	r23, 0xFF	; 255
     a24:	c6 01       	movw	r24, r12
     a26:	0e 94 d7 08 	call	0x11ae	; 0x11ae <strnlen>
     a2a:	4c 01       	movw	r8, r24
     a2c:	82 01       	movw	r16, r4
     a2e:	d5 cf       	rjmp	.-86     	; 0x9da <__stack+0xdb>
     a30:	b7 01       	movw	r22, r14
     a32:	80 e2       	ldi	r24, 0x20	; 32
     a34:	90 e0       	ldi	r25, 0x00	; 0
     a36:	0e 94 b0 03 	call	0x760	; 0x760 <fputc>
     a3a:	2a 94       	dec	r2
     a3c:	28 14       	cp	r2, r8
     a3e:	19 04       	cpc	r1, r9
     a40:	09 f0       	breq	.+2      	; 0xa44 <__stack+0x145>
     a42:	b0 f7       	brcc	.-20     	; 0xa30 <__stack+0x131>
     a44:	ce cf       	rjmp	.-100    	; 0x9e2 <__stack+0xe3>
     a46:	f6 01       	movw	r30, r12
     a48:	37 fc       	sbrc	r3, 7
     a4a:	85 91       	lpm	r24, Z+
     a4c:	37 fe       	sbrs	r3, 7
     a4e:	81 91       	ld	r24, Z+
     a50:	6f 01       	movw	r12, r30
     a52:	b7 01       	movw	r22, r14
     a54:	90 e0       	ldi	r25, 0x00	; 0
     a56:	0e 94 b0 03 	call	0x760	; 0x760 <fputc>
     a5a:	51 10       	cpse	r5, r1
     a5c:	5a 94       	dec	r5
     a5e:	f1 e0       	ldi	r31, 0x01	; 1
     a60:	8f 1a       	sub	r8, r31
     a62:	91 08       	sbc	r9, r1
     a64:	bf cf       	rjmp	.-130    	; 0x9e4 <__stack+0xe5>
     a66:	84 36       	cpi	r24, 0x64	; 100
     a68:	19 f0       	breq	.+6      	; 0xa70 <__stack+0x171>
     a6a:	89 36       	cpi	r24, 0x69	; 105
     a6c:	09 f0       	breq	.+2      	; 0xa70 <__stack+0x171>
     a6e:	77 c0       	rjmp	.+238    	; 0xb5e <__stack+0x25f>
     a70:	f8 01       	movw	r30, r16
     a72:	37 fe       	sbrs	r3, 7
     a74:	6b c0       	rjmp	.+214    	; 0xb4c <__stack+0x24d>
     a76:	60 81       	ld	r22, Z
     a78:	71 81       	ldd	r23, Z+1	; 0x01
     a7a:	82 81       	ldd	r24, Z+2	; 0x02
     a7c:	93 81       	ldd	r25, Z+3	; 0x03
     a7e:	0c 5f       	subi	r16, 0xFC	; 252
     a80:	1f 4f       	sbci	r17, 0xFF	; 255
     a82:	f3 2d       	mov	r31, r3
     a84:	ff 76       	andi	r31, 0x6F	; 111
     a86:	3f 2e       	mov	r3, r31
     a88:	97 ff       	sbrs	r25, 7
     a8a:	09 c0       	rjmp	.+18     	; 0xa9e <__stack+0x19f>
     a8c:	90 95       	com	r25
     a8e:	80 95       	com	r24
     a90:	70 95       	com	r23
     a92:	61 95       	neg	r22
     a94:	7f 4f       	sbci	r23, 0xFF	; 255
     a96:	8f 4f       	sbci	r24, 0xFF	; 255
     a98:	9f 4f       	sbci	r25, 0xFF	; 255
     a9a:	68 94       	set
     a9c:	37 f8       	bld	r3, 7
     a9e:	2a e0       	ldi	r18, 0x0A	; 10
     aa0:	30 e0       	ldi	r19, 0x00	; 0
     aa2:	a5 01       	movw	r20, r10
     aa4:	0e 94 36 09 	call	0x126c	; 0x126c <__ultoa_invert>
     aa8:	c8 2e       	mov	r12, r24
     aaa:	ca 18       	sub	r12, r10
     aac:	8c 2c       	mov	r8, r12
     aae:	43 2c       	mov	r4, r3
     ab0:	36 fe       	sbrs	r3, 6
     ab2:	0c c0       	rjmp	.+24     	; 0xacc <__stack+0x1cd>
     ab4:	e8 94       	clt
     ab6:	40 f8       	bld	r4, 0
     ab8:	c9 14       	cp	r12, r9
     aba:	40 f4       	brcc	.+16     	; 0xacc <__stack+0x1cd>
     abc:	34 fe       	sbrs	r3, 4
     abe:	05 c0       	rjmp	.+10     	; 0xaca <__stack+0x1cb>
     ac0:	32 fc       	sbrc	r3, 2
     ac2:	03 c0       	rjmp	.+6      	; 0xaca <__stack+0x1cb>
     ac4:	f3 2d       	mov	r31, r3
     ac6:	fe 7e       	andi	r31, 0xEE	; 238
     ac8:	4f 2e       	mov	r4, r31
     aca:	89 2c       	mov	r8, r9
     acc:	44 fe       	sbrs	r4, 4
     ace:	95 c0       	rjmp	.+298    	; 0xbfa <__stack+0x2fb>
     ad0:	fe 01       	movw	r30, r28
     ad2:	ec 0d       	add	r30, r12
     ad4:	f1 1d       	adc	r31, r1
     ad6:	80 81       	ld	r24, Z
     ad8:	80 33       	cpi	r24, 0x30	; 48
     ada:	09 f0       	breq	.+2      	; 0xade <__stack+0x1df>
     adc:	87 c0       	rjmp	.+270    	; 0xbec <__stack+0x2ed>
     ade:	24 2d       	mov	r18, r4
     ae0:	29 7e       	andi	r18, 0xE9	; 233
     ae2:	42 2e       	mov	r4, r18
     ae4:	84 2d       	mov	r24, r4
     ae6:	88 70       	andi	r24, 0x08	; 8
     ae8:	58 2e       	mov	r5, r24
     aea:	43 fc       	sbrc	r4, 3
     aec:	95 c0       	rjmp	.+298    	; 0xc18 <__stack+0x319>
     aee:	40 fe       	sbrs	r4, 0
     af0:	8f c0       	rjmp	.+286    	; 0xc10 <__stack+0x311>
     af2:	9c 2c       	mov	r9, r12
     af4:	82 14       	cp	r8, r2
     af6:	18 f4       	brcc	.+6      	; 0xafe <__stack+0x1ff>
     af8:	2c 0c       	add	r2, r12
     afa:	92 2c       	mov	r9, r2
     afc:	98 18       	sub	r9, r8
     afe:	44 fe       	sbrs	r4, 4
     b00:	91 c0       	rjmp	.+290    	; 0xc24 <__stack+0x325>
     b02:	b7 01       	movw	r22, r14
     b04:	80 e3       	ldi	r24, 0x30	; 48
     b06:	90 e0       	ldi	r25, 0x00	; 0
     b08:	0e 94 b0 03 	call	0x760	; 0x760 <fputc>
     b0c:	42 fe       	sbrs	r4, 2
     b0e:	09 c0       	rjmp	.+18     	; 0xb22 <__stack+0x223>
     b10:	88 e7       	ldi	r24, 0x78	; 120
     b12:	90 e0       	ldi	r25, 0x00	; 0
     b14:	41 fe       	sbrs	r4, 1
     b16:	02 c0       	rjmp	.+4      	; 0xb1c <__stack+0x21d>
     b18:	88 e5       	ldi	r24, 0x58	; 88
     b1a:	90 e0       	ldi	r25, 0x00	; 0
     b1c:	b7 01       	movw	r22, r14
     b1e:	0e 94 b0 03 	call	0x760	; 0x760 <fputc>
     b22:	c9 14       	cp	r12, r9
     b24:	08 f4       	brcc	.+2      	; 0xb28 <__stack+0x229>
     b26:	8a c0       	rjmp	.+276    	; 0xc3c <__stack+0x33d>
     b28:	ca 94       	dec	r12
     b2a:	d1 2c       	mov	r13, r1
     b2c:	9f ef       	ldi	r25, 0xFF	; 255
     b2e:	c9 1a       	sub	r12, r25
     b30:	d9 0a       	sbc	r13, r25
     b32:	ca 0c       	add	r12, r10
     b34:	db 1c       	adc	r13, r11
     b36:	f6 01       	movw	r30, r12
     b38:	82 91       	ld	r24, -Z
     b3a:	6f 01       	movw	r12, r30
     b3c:	b7 01       	movw	r22, r14
     b3e:	90 e0       	ldi	r25, 0x00	; 0
     b40:	0e 94 b0 03 	call	0x760	; 0x760 <fputc>
     b44:	ac 14       	cp	r10, r12
     b46:	bd 04       	cpc	r11, r13
     b48:	b1 f7       	brne	.-20     	; 0xb36 <__stack+0x237>
     b4a:	4f cf       	rjmp	.-354    	; 0x9ea <__stack+0xeb>
     b4c:	60 81       	ld	r22, Z
     b4e:	71 81       	ldd	r23, Z+1	; 0x01
     b50:	07 2e       	mov	r0, r23
     b52:	00 0c       	add	r0, r0
     b54:	88 0b       	sbc	r24, r24
     b56:	99 0b       	sbc	r25, r25
     b58:	0e 5f       	subi	r16, 0xFE	; 254
     b5a:	1f 4f       	sbci	r17, 0xFF	; 255
     b5c:	92 cf       	rjmp	.-220    	; 0xa82 <__stack+0x183>
     b5e:	d3 2c       	mov	r13, r3
     b60:	e8 94       	clt
     b62:	d4 f8       	bld	r13, 4
     b64:	2a e0       	ldi	r18, 0x0A	; 10
     b66:	30 e0       	ldi	r19, 0x00	; 0
     b68:	85 37       	cpi	r24, 0x75	; 117
     b6a:	39 f1       	breq	.+78     	; 0xbba <__stack+0x2bb>
     b6c:	23 2d       	mov	r18, r3
     b6e:	29 7f       	andi	r18, 0xF9	; 249
     b70:	d2 2e       	mov	r13, r18
     b72:	8f 36       	cpi	r24, 0x6F	; 111
     b74:	01 f1       	breq	.+64     	; 0xbb6 <__stack+0x2b7>
     b76:	48 f4       	brcc	.+18     	; 0xb8a <__stack+0x28b>
     b78:	88 35       	cpi	r24, 0x58	; 88
     b7a:	a9 f0       	breq	.+42     	; 0xba6 <__stack+0x2a7>
     b7c:	f7 01       	movw	r30, r14
     b7e:	86 81       	ldd	r24, Z+6	; 0x06
     b80:	97 81       	ldd	r25, Z+7	; 0x07
     b82:	2b 96       	adiw	r28, 0x0b	; 11
     b84:	e2 e1       	ldi	r30, 0x12	; 18
     b86:	0c 94 6e 03 	jmp	0x6dc	; 0x6dc <__epilogue_restores__>
     b8a:	80 37       	cpi	r24, 0x70	; 112
     b8c:	49 f0       	breq	.+18     	; 0xba0 <__stack+0x2a1>
     b8e:	88 37       	cpi	r24, 0x78	; 120
     b90:	a9 f7       	brne	.-22     	; 0xb7c <__stack+0x27d>
     b92:	d4 fe       	sbrs	r13, 4
     b94:	02 c0       	rjmp	.+4      	; 0xb9a <__stack+0x29b>
     b96:	68 94       	set
     b98:	d2 f8       	bld	r13, 2
     b9a:	20 e1       	ldi	r18, 0x10	; 16
     b9c:	30 e0       	ldi	r19, 0x00	; 0
     b9e:	0d c0       	rjmp	.+26     	; 0xbba <__stack+0x2bb>
     ba0:	68 94       	set
     ba2:	d4 f8       	bld	r13, 4
     ba4:	f6 cf       	rjmp	.-20     	; 0xb92 <__stack+0x293>
     ba6:	34 fe       	sbrs	r3, 4
     ba8:	03 c0       	rjmp	.+6      	; 0xbb0 <__stack+0x2b1>
     baa:	82 2f       	mov	r24, r18
     bac:	86 60       	ori	r24, 0x06	; 6
     bae:	d8 2e       	mov	r13, r24
     bb0:	20 e1       	ldi	r18, 0x10	; 16
     bb2:	32 e0       	ldi	r19, 0x02	; 2
     bb4:	02 c0       	rjmp	.+4      	; 0xbba <__stack+0x2bb>
     bb6:	28 e0       	ldi	r18, 0x08	; 8
     bb8:	30 e0       	ldi	r19, 0x00	; 0
     bba:	f8 01       	movw	r30, r16
     bbc:	d7 fe       	sbrs	r13, 7
     bbe:	0f c0       	rjmp	.+30     	; 0xbde <__stack+0x2df>
     bc0:	60 81       	ld	r22, Z
     bc2:	71 81       	ldd	r23, Z+1	; 0x01
     bc4:	82 81       	ldd	r24, Z+2	; 0x02
     bc6:	93 81       	ldd	r25, Z+3	; 0x03
     bc8:	0c 5f       	subi	r16, 0xFC	; 252
     bca:	1f 4f       	sbci	r17, 0xFF	; 255
     bcc:	a5 01       	movw	r20, r10
     bce:	0e 94 36 09 	call	0x126c	; 0x126c <__ultoa_invert>
     bd2:	c8 2e       	mov	r12, r24
     bd4:	ca 18       	sub	r12, r10
     bd6:	3d 2c       	mov	r3, r13
     bd8:	e8 94       	clt
     bda:	37 f8       	bld	r3, 7
     bdc:	67 cf       	rjmp	.-306    	; 0xaac <__stack+0x1ad>
     bde:	60 81       	ld	r22, Z
     be0:	71 81       	ldd	r23, Z+1	; 0x01
     be2:	90 e0       	ldi	r25, 0x00	; 0
     be4:	80 e0       	ldi	r24, 0x00	; 0
     be6:	0e 5f       	subi	r16, 0xFE	; 254
     be8:	1f 4f       	sbci	r17, 0xFF	; 255
     bea:	f0 cf       	rjmp	.-32     	; 0xbcc <__stack+0x2cd>
     bec:	42 fc       	sbrc	r4, 2
     bee:	02 c0       	rjmp	.+4      	; 0xbf4 <__stack+0x2f5>
     bf0:	83 94       	inc	r8
     bf2:	78 cf       	rjmp	.-272    	; 0xae4 <__stack+0x1e5>
     bf4:	83 94       	inc	r8
     bf6:	83 94       	inc	r8
     bf8:	75 cf       	rjmp	.-278    	; 0xae4 <__stack+0x1e5>
     bfa:	84 2d       	mov	r24, r4
     bfc:	86 78       	andi	r24, 0x86	; 134
     bfe:	09 f4       	brne	.+2      	; 0xc02 <__stack+0x303>
     c00:	71 cf       	rjmp	.-286    	; 0xae4 <__stack+0x1e5>
     c02:	f6 cf       	rjmp	.-20     	; 0xbf0 <__stack+0x2f1>
     c04:	b7 01       	movw	r22, r14
     c06:	80 e2       	ldi	r24, 0x20	; 32
     c08:	90 e0       	ldi	r25, 0x00	; 0
     c0a:	0e 94 b0 03 	call	0x760	; 0x760 <fputc>
     c0e:	83 94       	inc	r8
     c10:	82 14       	cp	r8, r2
     c12:	c0 f3       	brcs	.-16     	; 0xc04 <__stack+0x305>
     c14:	51 2c       	mov	r5, r1
     c16:	73 cf       	rjmp	.-282    	; 0xafe <__stack+0x1ff>
     c18:	52 2c       	mov	r5, r2
     c1a:	58 18       	sub	r5, r8
     c1c:	82 14       	cp	r8, r2
     c1e:	08 f4       	brcc	.+2      	; 0xc22 <__stack+0x323>
     c20:	6e cf       	rjmp	.-292    	; 0xafe <__stack+0x1ff>
     c22:	f8 cf       	rjmp	.-16     	; 0xc14 <__stack+0x315>
     c24:	84 2d       	mov	r24, r4
     c26:	86 78       	andi	r24, 0x86	; 134
     c28:	09 f4       	brne	.+2      	; 0xc2c <__stack+0x32d>
     c2a:	7b cf       	rjmp	.-266    	; 0xb22 <__stack+0x223>
     c2c:	8b e2       	ldi	r24, 0x2B	; 43
     c2e:	41 fe       	sbrs	r4, 1
     c30:	80 e2       	ldi	r24, 0x20	; 32
     c32:	47 fc       	sbrc	r4, 7
     c34:	8d e2       	ldi	r24, 0x2D	; 45
     c36:	b7 01       	movw	r22, r14
     c38:	90 e0       	ldi	r25, 0x00	; 0
     c3a:	71 cf       	rjmp	.-286    	; 0xb1e <__stack+0x21f>
     c3c:	b7 01       	movw	r22, r14
     c3e:	80 e3       	ldi	r24, 0x30	; 48
     c40:	90 e0       	ldi	r25, 0x00	; 0
     c42:	0e 94 b0 03 	call	0x760	; 0x760 <fputc>
     c46:	9a 94       	dec	r9
     c48:	6c cf       	rjmp	.-296    	; 0xb22 <__stack+0x223>
     c4a:	8f ef       	ldi	r24, 0xFF	; 255
     c4c:	9f ef       	ldi	r25, 0xFF	; 255
     c4e:	99 cf       	rjmp	.-206    	; 0xb82 <__stack+0x283>

00000c50 <putval>:
     c50:	20 fd       	sbrc	r18, 0
     c52:	09 c0       	rjmp	.+18     	; 0xc66 <putval+0x16>
     c54:	fc 01       	movw	r30, r24
     c56:	23 fd       	sbrc	r18, 3
     c58:	05 c0       	rjmp	.+10     	; 0xc64 <putval+0x14>
     c5a:	22 ff       	sbrs	r18, 2
     c5c:	02 c0       	rjmp	.+4      	; 0xc62 <putval+0x12>
     c5e:	73 83       	std	Z+3, r23	; 0x03
     c60:	62 83       	std	Z+2, r22	; 0x02
     c62:	51 83       	std	Z+1, r21	; 0x01
     c64:	40 83       	st	Z, r20
     c66:	08 95       	ret

00000c68 <mulacc>:
     c68:	44 fd       	sbrc	r20, 4
     c6a:	17 c0       	rjmp	.+46     	; 0xc9a <mulacc+0x32>
     c6c:	46 fd       	sbrc	r20, 6
     c6e:	1d c0       	rjmp	.+58     	; 0xcaa <mulacc+0x42>
     c70:	db 01       	movw	r26, r22
     c72:	fc 01       	movw	r30, r24
     c74:	aa 0f       	add	r26, r26
     c76:	bb 1f       	adc	r27, r27
     c78:	ee 1f       	adc	r30, r30
     c7a:	ff 1f       	adc	r31, r31
     c7c:	10 94       	com	r1
     c7e:	d1 f7       	brne	.-12     	; 0xc74 <mulacc+0xc>
     c80:	6a 0f       	add	r22, r26
     c82:	7b 1f       	adc	r23, r27
     c84:	8e 1f       	adc	r24, r30
     c86:	9f 1f       	adc	r25, r31
     c88:	66 0f       	add	r22, r22
     c8a:	77 1f       	adc	r23, r23
     c8c:	88 1f       	adc	r24, r24
     c8e:	99 1f       	adc	r25, r25
     c90:	62 0f       	add	r22, r18
     c92:	71 1d       	adc	r23, r1
     c94:	81 1d       	adc	r24, r1
     c96:	91 1d       	adc	r25, r1
     c98:	08 95       	ret
     c9a:	33 e0       	ldi	r19, 0x03	; 3
     c9c:	66 0f       	add	r22, r22
     c9e:	77 1f       	adc	r23, r23
     ca0:	88 1f       	adc	r24, r24
     ca2:	99 1f       	adc	r25, r25
     ca4:	31 50       	subi	r19, 0x01	; 1
     ca6:	d1 f7       	brne	.-12     	; 0xc9c <mulacc+0x34>
     ca8:	f3 cf       	rjmp	.-26     	; 0xc90 <mulacc+0x28>
     caa:	34 e0       	ldi	r19, 0x04	; 4
     cac:	f7 cf       	rjmp	.-18     	; 0xc9c <mulacc+0x34>

00000cae <skip_spaces>:
     cae:	0f 93       	push	r16
     cb0:	1f 93       	push	r17
     cb2:	cf 93       	push	r28
     cb4:	df 93       	push	r29
     cb6:	8c 01       	movw	r16, r24
     cb8:	c8 01       	movw	r24, r16
     cba:	0e 94 e2 08 	call	0x11c4	; 0x11c4 <fgetc>
     cbe:	ec 01       	movw	r28, r24
     cc0:	97 fd       	sbrc	r25, 7
     cc2:	08 c0       	rjmp	.+16     	; 0xcd4 <skip_spaces+0x26>
     cc4:	0e 94 b8 08 	call	0x1170	; 0x1170 <isspace>
     cc8:	89 2b       	or	r24, r25
     cca:	b1 f7       	brne	.-20     	; 0xcb8 <skip_spaces+0xa>
     ccc:	b8 01       	movw	r22, r16
     cce:	ce 01       	movw	r24, r28
     cd0:	0e 94 1e 09 	call	0x123c	; 0x123c <ungetc>
     cd4:	ce 01       	movw	r24, r28
     cd6:	df 91       	pop	r29
     cd8:	cf 91       	pop	r28
     cda:	1f 91       	pop	r17
     cdc:	0f 91       	pop	r16
     cde:	08 95       	ret

00000ce0 <conv_int>:
     ce0:	8f 92       	push	r8
     ce2:	9f 92       	push	r9
     ce4:	af 92       	push	r10
     ce6:	bf 92       	push	r11
     ce8:	ef 92       	push	r14
     cea:	ff 92       	push	r15
     cec:	0f 93       	push	r16
     cee:	1f 93       	push	r17
     cf0:	cf 93       	push	r28
     cf2:	df 93       	push	r29
     cf4:	8c 01       	movw	r16, r24
     cf6:	d6 2f       	mov	r29, r22
     cf8:	7a 01       	movw	r14, r20
     cfa:	b2 2e       	mov	r11, r18
     cfc:	0e 94 e2 08 	call	0x11c4	; 0x11c4 <fgetc>
     d00:	9c 01       	movw	r18, r24
     d02:	33 27       	eor	r19, r19
     d04:	2b 32       	cpi	r18, 0x2B	; 43
     d06:	31 05       	cpc	r19, r1
     d08:	29 f0       	breq	.+10     	; 0xd14 <conv_int+0x34>
     d0a:	2d 32       	cpi	r18, 0x2D	; 45
     d0c:	31 05       	cpc	r19, r1
     d0e:	a9 f4       	brne	.+42     	; 0xd3a <conv_int+0x5a>
     d10:	68 94       	set
     d12:	b7 f8       	bld	r11, 7
     d14:	d1 50       	subi	r29, 0x01	; 1
     d16:	61 f4       	brne	.+24     	; 0xd30 <conv_int+0x50>
     d18:	80 e0       	ldi	r24, 0x00	; 0
     d1a:	df 91       	pop	r29
     d1c:	cf 91       	pop	r28
     d1e:	1f 91       	pop	r17
     d20:	0f 91       	pop	r16
     d22:	ff 90       	pop	r15
     d24:	ef 90       	pop	r14
     d26:	bf 90       	pop	r11
     d28:	af 90       	pop	r10
     d2a:	9f 90       	pop	r9
     d2c:	8f 90       	pop	r8
     d2e:	08 95       	ret
     d30:	c8 01       	movw	r24, r16
     d32:	0e 94 e2 08 	call	0x11c4	; 0x11c4 <fgetc>
     d36:	97 fd       	sbrc	r25, 7
     d38:	ef cf       	rjmp	.-34     	; 0xd18 <conv_int+0x38>
     d3a:	cb 2d       	mov	r28, r11
     d3c:	cd 7f       	andi	r28, 0xFD	; 253
     d3e:	2b 2d       	mov	r18, r11
     d40:	20 73       	andi	r18, 0x30	; 48
     d42:	f9 f4       	brne	.+62     	; 0xd82 <conv_int+0xa2>
     d44:	80 33       	cpi	r24, 0x30	; 48
     d46:	e9 f4       	brne	.+58     	; 0xd82 <conv_int+0xa2>
     d48:	aa 24       	eor	r10, r10
     d4a:	aa 94       	dec	r10
     d4c:	ad 0e       	add	r10, r29
     d4e:	89 f0       	breq	.+34     	; 0xd72 <conv_int+0x92>
     d50:	c8 01       	movw	r24, r16
     d52:	0e 94 e2 08 	call	0x11c4	; 0x11c4 <fgetc>
     d56:	97 fd       	sbrc	r25, 7
     d58:	0c c0       	rjmp	.+24     	; 0xd72 <conv_int+0x92>
     d5a:	28 2f       	mov	r18, r24
     d5c:	2f 7d       	andi	r18, 0xDF	; 223
     d5e:	28 35       	cpi	r18, 0x58	; 88
     d60:	61 f4       	brne	.+24     	; 0xd7a <conv_int+0x9a>
     d62:	c2 64       	ori	r28, 0x42	; 66
     d64:	d2 50       	subi	r29, 0x02	; 2
     d66:	29 f0       	breq	.+10     	; 0xd72 <conv_int+0x92>
     d68:	c8 01       	movw	r24, r16
     d6a:	0e 94 e2 08 	call	0x11c4	; 0x11c4 <fgetc>
     d6e:	97 ff       	sbrs	r25, 7
     d70:	08 c0       	rjmp	.+16     	; 0xd82 <conv_int+0xa2>
     d72:	81 2c       	mov	r8, r1
     d74:	91 2c       	mov	r9, r1
     d76:	54 01       	movw	r10, r8
     d78:	1b c0       	rjmp	.+54     	; 0xdb0 <conv_int+0xd0>
     d7a:	b6 fe       	sbrs	r11, 6
     d7c:	2b c0       	rjmp	.+86     	; 0xdd4 <conv_int+0xf4>
     d7e:	c2 60       	ori	r28, 0x02	; 2
     d80:	da 2d       	mov	r29, r10
     d82:	81 2c       	mov	r8, r1
     d84:	91 2c       	mov	r9, r1
     d86:	54 01       	movw	r10, r8
     d88:	20 ed       	ldi	r18, 0xD0	; 208
     d8a:	28 0f       	add	r18, r24
     d8c:	28 30       	cpi	r18, 0x08	; 8
     d8e:	28 f1       	brcs	.+74     	; 0xdda <conv_int+0xfa>
     d90:	c4 fd       	sbrc	r28, 4
     d92:	09 c0       	rjmp	.+18     	; 0xda6 <conv_int+0xc6>
     d94:	2a 30       	cpi	r18, 0x0A	; 10
     d96:	08 f1       	brcs	.+66     	; 0xdda <conv_int+0xfa>
     d98:	c6 ff       	sbrs	r28, 6
     d9a:	05 c0       	rjmp	.+10     	; 0xda6 <conv_int+0xc6>
     d9c:	2f 7d       	andi	r18, 0xDF	; 223
     d9e:	3f ee       	ldi	r19, 0xEF	; 239
     da0:	32 0f       	add	r19, r18
     da2:	36 30       	cpi	r19, 0x06	; 6
     da4:	c8 f0       	brcs	.+50     	; 0xdd8 <conv_int+0xf8>
     da6:	b8 01       	movw	r22, r16
     da8:	0e 94 1e 09 	call	0x123c	; 0x123c <ungetc>
     dac:	c1 ff       	sbrs	r28, 1
     dae:	b4 cf       	rjmp	.-152    	; 0xd18 <conv_int+0x38>
     db0:	c7 ff       	sbrs	r28, 7
     db2:	08 c0       	rjmp	.+16     	; 0xdc4 <conv_int+0xe4>
     db4:	b0 94       	com	r11
     db6:	a0 94       	com	r10
     db8:	90 94       	com	r9
     dba:	80 94       	com	r8
     dbc:	81 1c       	adc	r8, r1
     dbe:	91 1c       	adc	r9, r1
     dc0:	a1 1c       	adc	r10, r1
     dc2:	b1 1c       	adc	r11, r1
     dc4:	2c 2f       	mov	r18, r28
     dc6:	b5 01       	movw	r22, r10
     dc8:	a4 01       	movw	r20, r8
     dca:	c7 01       	movw	r24, r14
     dcc:	0e 94 28 06 	call	0xc50	; 0xc50 <putval>
     dd0:	81 e0       	ldi	r24, 0x01	; 1
     dd2:	a3 cf       	rjmp	.-186    	; 0xd1a <conv_int+0x3a>
     dd4:	c2 61       	ori	r28, 0x12	; 18
     dd6:	d4 cf       	rjmp	.-88     	; 0xd80 <conv_int+0xa0>
     dd8:	27 50       	subi	r18, 0x07	; 7
     dda:	4c 2f       	mov	r20, r28
     ddc:	c5 01       	movw	r24, r10
     dde:	b4 01       	movw	r22, r8
     de0:	0e 94 34 06 	call	0xc68	; 0xc68 <mulacc>
     de4:	4b 01       	movw	r8, r22
     de6:	5c 01       	movw	r10, r24
     de8:	c2 60       	ori	r28, 0x02	; 2
     dea:	d1 50       	subi	r29, 0x01	; 1
     dec:	09 f3       	breq	.-62     	; 0xdb0 <conv_int+0xd0>
     dee:	c8 01       	movw	r24, r16
     df0:	0e 94 e2 08 	call	0x11c4	; 0x11c4 <fgetc>
     df4:	97 ff       	sbrs	r25, 7
     df6:	c8 cf       	rjmp	.-112    	; 0xd88 <conv_int+0xa8>
     df8:	d9 cf       	rjmp	.-78     	; 0xdac <conv_int+0xcc>

00000dfa <conv_brk>:
     dfa:	a0 e2       	ldi	r26, 0x20	; 32
     dfc:	b0 e0       	ldi	r27, 0x00	; 0
     dfe:	e3 e0       	ldi	r30, 0x03	; 3
     e00:	f7 e0       	ldi	r31, 0x07	; 7
     e02:	0c 94 57 03 	jmp	0x6ae	; 0x6ae <__prologue_saves__+0xa>
     e06:	5c 01       	movw	r10, r24
     e08:	96 2e       	mov	r9, r22
     e0a:	7a 01       	movw	r14, r20
     e0c:	ce 01       	movw	r24, r28
     e0e:	01 96       	adiw	r24, 0x01	; 1
     e10:	6c 01       	movw	r12, r24
     e12:	80 e2       	ldi	r24, 0x20	; 32
     e14:	f6 01       	movw	r30, r12
     e16:	11 92       	st	Z+, r1
     e18:	8a 95       	dec	r24
     e1a:	e9 f7       	brne	.-6      	; 0xe16 <conv_brk+0x1c>
     e1c:	f5 01       	movw	r30, r10
     e1e:	b3 81       	ldd	r27, Z+3	; 0x03
     e20:	89 01       	movw	r16, r18
     e22:	30 e0       	ldi	r19, 0x00	; 0
     e24:	20 e0       	ldi	r18, 0x00	; 0
     e26:	71 2c       	mov	r7, r1
     e28:	81 2c       	mov	r8, r1
     e2a:	a0 e0       	ldi	r26, 0x00	; 0
     e2c:	41 e0       	ldi	r20, 0x01	; 1
     e2e:	50 e0       	ldi	r21, 0x00	; 0
     e30:	f8 01       	movw	r30, r16
     e32:	b3 fd       	sbrc	r27, 3
     e34:	85 91       	lpm	r24, Z+
     e36:	b3 ff       	sbrs	r27, 3
     e38:	81 91       	ld	r24, Z+
     e3a:	98 2f       	mov	r25, r24
     e3c:	8f 01       	movw	r16, r30
     e3e:	81 11       	cpse	r24, r1
     e40:	07 c0       	rjmp	.+14     	; 0xe50 <conv_brk+0x56>
     e42:	10 e0       	ldi	r17, 0x00	; 0
     e44:	00 e0       	ldi	r16, 0x00	; 0
     e46:	c8 01       	movw	r24, r16
     e48:	a0 96       	adiw	r28, 0x20	; 32
     e4a:	ed e0       	ldi	r30, 0x0D	; 13
     e4c:	0c 94 73 03 	jmp	0x6e6	; 0x6e6 <__epilogue_restores__+0xa>
     e50:	8e 35       	cpi	r24, 0x5E	; 94
     e52:	19 f4       	brne	.+6      	; 0xe5a <conv_brk+0x60>
     e54:	21 15       	cp	r18, r1
     e56:	31 05       	cpc	r19, r1
     e58:	41 f1       	breq	.+80     	; 0xeaa <conv_brk+0xb0>
     e5a:	a2 17       	cp	r26, r18
     e5c:	13 06       	cpc	r1, r19
     e5e:	4c f4       	brge	.+18     	; 0xe72 <conv_brk+0x78>
     e60:	8d 35       	cpi	r24, 0x5D	; 93
     e62:	49 f1       	breq	.+82     	; 0xeb6 <conv_brk+0xbc>
     e64:	8d 32       	cpi	r24, 0x2D	; 45
     e66:	29 f4       	brne	.+10     	; 0xe72 <conv_brk+0x78>
     e68:	81 10       	cpse	r8, r1
     e6a:	06 c0       	rjmp	.+12     	; 0xe78 <conv_brk+0x7e>
     e6c:	88 24       	eor	r8, r8
     e6e:	83 94       	inc	r8
     e70:	1d c0       	rjmp	.+58     	; 0xeac <conv_brk+0xb2>
     e72:	88 20       	and	r8, r8
     e74:	09 f4       	brne	.+2      	; 0xe78 <conv_brk+0x7e>
     e76:	64 c0       	rjmp	.+200    	; 0xf40 <conv_brk+0x146>
     e78:	e9 2f       	mov	r30, r25
     e7a:	e6 95       	lsr	r30
     e7c:	e6 95       	lsr	r30
     e7e:	e6 95       	lsr	r30
     e80:	ec 0d       	add	r30, r12
     e82:	fd 2d       	mov	r31, r13
     e84:	f1 1d       	adc	r31, r1
     e86:	89 2f       	mov	r24, r25
     e88:	87 70       	andi	r24, 0x07	; 7
     e8a:	ba 01       	movw	r22, r20
     e8c:	01 c0       	rjmp	.+2      	; 0xe90 <conv_brk+0x96>
     e8e:	66 0f       	add	r22, r22
     e90:	8a 95       	dec	r24
     e92:	ea f7       	brpl	.-6      	; 0xe8e <conv_brk+0x94>
     e94:	80 81       	ld	r24, Z
     e96:	68 2b       	or	r22, r24
     e98:	60 83       	st	Z, r22
     e9a:	79 16       	cp	r7, r25
     e9c:	51 f0       	breq	.+20     	; 0xeb2 <conv_brk+0xb8>
     e9e:	97 15       	cp	r25, r7
     ea0:	10 f4       	brcc	.+4      	; 0xea6 <conv_brk+0xac>
     ea2:	9f 5f       	subi	r25, 0xFF	; 255
     ea4:	e9 cf       	rjmp	.-46     	; 0xe78 <conv_brk+0x7e>
     ea6:	91 50       	subi	r25, 0x01	; 1
     ea8:	e7 cf       	rjmp	.-50     	; 0xe78 <conv_brk+0x7e>
     eaa:	a1 e0       	ldi	r26, 0x01	; 1
     eac:	2f 5f       	subi	r18, 0xFF	; 255
     eae:	3f 4f       	sbci	r19, 0xFF	; 255
     eb0:	bf cf       	rjmp	.-130    	; 0xe30 <conv_brk+0x36>
     eb2:	81 2c       	mov	r8, r1
     eb4:	fb cf       	rjmp	.-10     	; 0xeac <conv_brk+0xb2>
     eb6:	88 20       	and	r8, r8
     eb8:	19 f0       	breq	.+6      	; 0xec0 <conv_brk+0xc6>
     eba:	8e 81       	ldd	r24, Y+6	; 0x06
     ebc:	80 62       	ori	r24, 0x20	; 32
     ebe:	8e 83       	std	Y+6, r24	; 0x06
     ec0:	aa 23       	and	r26, r26
     ec2:	59 f0       	breq	.+22     	; 0xeda <conv_brk+0xe0>
     ec4:	f6 01       	movw	r30, r12
     ec6:	9e 01       	movw	r18, r28
     ec8:	2f 5d       	subi	r18, 0xDF	; 223
     eca:	3f 4f       	sbci	r19, 0xFF	; 255
     ecc:	80 81       	ld	r24, Z
     ece:	80 95       	com	r24
     ed0:	80 83       	st	Z, r24
     ed2:	31 96       	adiw	r30, 0x01	; 1
     ed4:	e2 17       	cp	r30, r18
     ed6:	f3 07       	cpc	r31, r19
     ed8:	c9 f7       	brne	.-14     	; 0xecc <conv_brk+0xd2>
     eda:	88 24       	eor	r8, r8
     edc:	83 94       	inc	r8
     ede:	c5 01       	movw	r24, r10
     ee0:	0e 94 e2 08 	call	0x11c4	; 0x11c4 <fgetc>
     ee4:	97 fd       	sbrc	r25, 7
     ee6:	16 c0       	rjmp	.+44     	; 0xf14 <conv_brk+0x11a>
     ee8:	e8 2f       	mov	r30, r24
     eea:	e6 95       	lsr	r30
     eec:	e6 95       	lsr	r30
     eee:	e6 95       	lsr	r30
     ef0:	ec 0d       	add	r30, r12
     ef2:	fd 2d       	mov	r31, r13
     ef4:	f1 1d       	adc	r31, r1
     ef6:	20 81       	ld	r18, Z
     ef8:	30 e0       	ldi	r19, 0x00	; 0
     efa:	ac 01       	movw	r20, r24
     efc:	47 70       	andi	r20, 0x07	; 7
     efe:	55 27       	eor	r21, r21
     f00:	02 c0       	rjmp	.+4      	; 0xf06 <conv_brk+0x10c>
     f02:	35 95       	asr	r19
     f04:	27 95       	ror	r18
     f06:	4a 95       	dec	r20
     f08:	e2 f7       	brpl	.-8      	; 0xf02 <conv_brk+0x108>
     f0a:	20 fd       	sbrc	r18, 0
     f0c:	06 c0       	rjmp	.+12     	; 0xf1a <conv_brk+0x120>
     f0e:	b5 01       	movw	r22, r10
     f10:	0e 94 1e 09 	call	0x123c	; 0x123c <ungetc>
     f14:	88 20       	and	r8, r8
     f16:	69 f0       	breq	.+26     	; 0xf32 <conv_brk+0x138>
     f18:	94 cf       	rjmp	.-216    	; 0xe42 <conv_brk+0x48>
     f1a:	e1 14       	cp	r14, r1
     f1c:	f1 04       	cpc	r15, r1
     f1e:	29 f0       	breq	.+10     	; 0xf2a <conv_brk+0x130>
     f20:	f7 01       	movw	r30, r14
     f22:	80 83       	st	Z, r24
     f24:	c7 01       	movw	r24, r14
     f26:	01 96       	adiw	r24, 0x01	; 1
     f28:	7c 01       	movw	r14, r24
     f2a:	9a 94       	dec	r9
     f2c:	81 2c       	mov	r8, r1
     f2e:	91 10       	cpse	r9, r1
     f30:	d6 cf       	rjmp	.-84     	; 0xede <conv_brk+0xe4>
     f32:	e1 14       	cp	r14, r1
     f34:	f1 04       	cpc	r15, r1
     f36:	09 f4       	brne	.+2      	; 0xf3a <conv_brk+0x140>
     f38:	86 cf       	rjmp	.-244    	; 0xe46 <conv_brk+0x4c>
     f3a:	f7 01       	movw	r30, r14
     f3c:	10 82       	st	Z, r1
     f3e:	83 cf       	rjmp	.-250    	; 0xe46 <conv_brk+0x4c>
     f40:	e8 2f       	mov	r30, r24
     f42:	e6 95       	lsr	r30
     f44:	e6 95       	lsr	r30
     f46:	e6 95       	lsr	r30
     f48:	ec 0d       	add	r30, r12
     f4a:	fd 2d       	mov	r31, r13
     f4c:	f1 1d       	adc	r31, r1
     f4e:	98 2f       	mov	r25, r24
     f50:	97 70       	andi	r25, 0x07	; 7
     f52:	ba 01       	movw	r22, r20
     f54:	01 c0       	rjmp	.+2      	; 0xf58 <conv_brk+0x15e>
     f56:	66 0f       	add	r22, r22
     f58:	9a 95       	dec	r25
     f5a:	ea f7       	brpl	.-6      	; 0xf56 <conv_brk+0x15c>
     f5c:	90 81       	ld	r25, Z
     f5e:	69 2b       	or	r22, r25
     f60:	60 83       	st	Z, r22
     f62:	78 2e       	mov	r7, r24
     f64:	a3 cf       	rjmp	.-186    	; 0xeac <conv_brk+0xb2>

00000f66 <vfscanf>:
     f66:	b0 e0       	ldi	r27, 0x00	; 0
     f68:	a0 e0       	ldi	r26, 0x00	; 0
     f6a:	e9 eb       	ldi	r30, 0xB9	; 185
     f6c:	f7 e0       	ldi	r31, 0x07	; 7
     f6e:	0c 94 55 03 	jmp	0x6aa	; 0x6aa <__prologue_saves__+0x6>
     f72:	6c 01       	movw	r12, r24
     f74:	eb 01       	movw	r28, r22
     f76:	5a 01       	movw	r10, r20
     f78:	fc 01       	movw	r30, r24
     f7a:	17 82       	std	Z+7, r1	; 0x07
     f7c:	16 82       	std	Z+6, r1	; 0x06
     f7e:	51 2c       	mov	r5, r1
     f80:	f6 01       	movw	r30, r12
     f82:	e3 80       	ldd	r14, Z+3	; 0x03
     f84:	fe 01       	movw	r30, r28
     f86:	e3 fc       	sbrc	r14, 3
     f88:	85 91       	lpm	r24, Z+
     f8a:	e3 fe       	sbrs	r14, 3
     f8c:	81 91       	ld	r24, Z+
     f8e:	18 2f       	mov	r17, r24
     f90:	ef 01       	movw	r28, r30
     f92:	88 23       	and	r24, r24
     f94:	e9 f0       	breq	.+58     	; 0xfd0 <vfscanf+0x6a>
     f96:	90 e0       	ldi	r25, 0x00	; 0
     f98:	0e 94 b8 08 	call	0x1170	; 0x1170 <isspace>
     f9c:	89 2b       	or	r24, r25
     f9e:	21 f0       	breq	.+8      	; 0xfa8 <vfscanf+0x42>
     fa0:	c6 01       	movw	r24, r12
     fa2:	0e 94 57 06 	call	0xcae	; 0xcae <skip_spaces>
     fa6:	ec cf       	rjmp	.-40     	; 0xf80 <vfscanf+0x1a>
     fa8:	15 32       	cpi	r17, 0x25	; 37
     faa:	41 f4       	brne	.+16     	; 0xfbc <vfscanf+0x56>
     fac:	fe 01       	movw	r30, r28
     fae:	e3 fc       	sbrc	r14, 3
     fb0:	15 91       	lpm	r17, Z+
     fb2:	e3 fe       	sbrs	r14, 3
     fb4:	11 91       	ld	r17, Z+
     fb6:	ef 01       	movw	r28, r30
     fb8:	15 32       	cpi	r17, 0x25	; 37
     fba:	69 f4       	brne	.+26     	; 0xfd6 <vfscanf+0x70>
     fbc:	c6 01       	movw	r24, r12
     fbe:	0e 94 e2 08 	call	0x11c4	; 0x11c4 <fgetc>
     fc2:	97 fd       	sbrc	r25, 7
     fc4:	8e c0       	rjmp	.+284    	; 0x10e2 <vfscanf+0x17c>
     fc6:	18 17       	cp	r17, r24
     fc8:	d9 f2       	breq	.-74     	; 0xf80 <vfscanf+0x1a>
     fca:	b6 01       	movw	r22, r12
     fcc:	0e 94 1e 09 	call	0x123c	; 0x123c <ungetc>
     fd0:	85 2d       	mov	r24, r5
     fd2:	90 e0       	ldi	r25, 0x00	; 0
     fd4:	8a c0       	rjmp	.+276    	; 0x10ea <vfscanf+0x184>
     fd6:	00 e0       	ldi	r16, 0x00	; 0
     fd8:	1a 32       	cpi	r17, 0x2A	; 42
     fda:	31 f4       	brne	.+12     	; 0xfe8 <vfscanf+0x82>
     fdc:	e3 fc       	sbrc	r14, 3
     fde:	15 91       	lpm	r17, Z+
     fe0:	e3 fe       	sbrs	r14, 3
     fe2:	11 91       	ld	r17, Z+
     fe4:	ef 01       	movw	r28, r30
     fe6:	01 e0       	ldi	r16, 0x01	; 1
     fe8:	f1 2c       	mov	r15, r1
     fea:	20 ed       	ldi	r18, 0xD0	; 208
     fec:	21 0f       	add	r18, r17
     fee:	2a 30       	cpi	r18, 0x0A	; 10
     ff0:	48 f1       	brcs	.+82     	; 0x1044 <vfscanf+0xde>
     ff2:	01 ff       	sbrs	r16, 1
     ff4:	37 c0       	rjmp	.+110    	; 0x1064 <vfscanf+0xfe>
     ff6:	ff 20       	and	r15, r15
     ff8:	59 f3       	breq	.-42     	; 0xfd0 <vfscanf+0x6a>
     ffa:	18 36       	cpi	r17, 0x68	; 104
     ffc:	b1 f1       	breq	.+108    	; 0x106a <vfscanf+0x104>
     ffe:	1c 36       	cpi	r17, 0x6C	; 108
    1000:	09 f4       	brne	.+2      	; 0x1004 <vfscanf+0x9e>
    1002:	3d c0       	rjmp	.+122    	; 0x107e <vfscanf+0x118>
    1004:	11 23       	and	r17, r17
    1006:	21 f3       	breq	.-56     	; 0xfd0 <vfscanf+0x6a>
    1008:	61 2f       	mov	r22, r17
    100a:	70 e0       	ldi	r23, 0x00	; 0
    100c:	8d e6       	ldi	r24, 0x6D	; 109
    100e:	99 e1       	ldi	r25, 0x19	; 25
    1010:	0e 94 c1 08 	call	0x1182	; 0x1182 <strchr_P>
    1014:	89 2b       	or	r24, r25
    1016:	e1 f2       	breq	.-72     	; 0xfd0 <vfscanf+0x6a>
    1018:	91 2c       	mov	r9, r1
    101a:	81 2c       	mov	r8, r1
    101c:	00 fd       	sbrc	r16, 0
    101e:	06 c0       	rjmp	.+12     	; 0x102c <vfscanf+0xc6>
    1020:	f5 01       	movw	r30, r10
    1022:	80 80       	ld	r8, Z
    1024:	91 80       	ldd	r9, Z+1	; 0x01
    1026:	c5 01       	movw	r24, r10
    1028:	02 96       	adiw	r24, 0x02	; 2
    102a:	5c 01       	movw	r10, r24
    102c:	1e 36       	cpi	r17, 0x6E	; 110
    102e:	79 f5       	brne	.+94     	; 0x108e <vfscanf+0x128>
    1030:	f6 01       	movw	r30, r12
    1032:	46 81       	ldd	r20, Z+6	; 0x06
    1034:	57 81       	ldd	r21, Z+7	; 0x07
    1036:	70 e0       	ldi	r23, 0x00	; 0
    1038:	60 e0       	ldi	r22, 0x00	; 0
    103a:	20 2f       	mov	r18, r16
    103c:	c4 01       	movw	r24, r8
    103e:	0e 94 28 06 	call	0xc50	; 0xc50 <putval>
    1042:	9e cf       	rjmp	.-196    	; 0xf80 <vfscanf+0x1a>
    1044:	02 60       	ori	r16, 0x02	; 2
    1046:	6f 2d       	mov	r22, r15
    1048:	70 e0       	ldi	r23, 0x00	; 0
    104a:	90 e0       	ldi	r25, 0x00	; 0
    104c:	80 e0       	ldi	r24, 0x00	; 0
    104e:	40 e2       	ldi	r20, 0x20	; 32
    1050:	0e 94 34 06 	call	0xc68	; 0xc68 <mulacc>
    1054:	f6 2e       	mov	r15, r22
    1056:	fe 01       	movw	r30, r28
    1058:	e3 fc       	sbrc	r14, 3
    105a:	15 91       	lpm	r17, Z+
    105c:	e3 fe       	sbrs	r14, 3
    105e:	11 91       	ld	r17, Z+
    1060:	ef 01       	movw	r28, r30
    1062:	c3 cf       	rjmp	.-122    	; 0xfea <vfscanf+0x84>
    1064:	ff 24       	eor	r15, r15
    1066:	fa 94       	dec	r15
    1068:	c8 cf       	rjmp	.-112    	; 0xffa <vfscanf+0x94>
    106a:	fe 01       	movw	r30, r28
    106c:	e3 fc       	sbrc	r14, 3
    106e:	15 91       	lpm	r17, Z+
    1070:	e3 fe       	sbrs	r14, 3
    1072:	11 91       	ld	r17, Z+
    1074:	ef 01       	movw	r28, r30
    1076:	18 36       	cpi	r17, 0x68	; 104
    1078:	09 f0       	breq	.+2      	; 0x107c <vfscanf+0x116>
    107a:	c4 cf       	rjmp	.-120    	; 0x1004 <vfscanf+0x9e>
    107c:	08 60       	ori	r16, 0x08	; 8
    107e:	04 60       	ori	r16, 0x04	; 4
    1080:	fe 01       	movw	r30, r28
    1082:	e3 fc       	sbrc	r14, 3
    1084:	15 91       	lpm	r17, Z+
    1086:	e3 fe       	sbrs	r14, 3
    1088:	11 91       	ld	r17, Z+
    108a:	ef 01       	movw	r28, r30
    108c:	bb cf       	rjmp	.-138    	; 0x1004 <vfscanf+0x9e>
    108e:	13 36       	cpi	r17, 0x63	; 99
    1090:	c1 f4       	brne	.+48     	; 0x10c2 <vfscanf+0x15c>
    1092:	01 fd       	sbrc	r16, 1
    1094:	02 c0       	rjmp	.+4      	; 0x109a <vfscanf+0x134>
    1096:	ff 24       	eor	r15, r15
    1098:	f3 94       	inc	r15
    109a:	c6 01       	movw	r24, r12
    109c:	0e 94 e2 08 	call	0x11c4	; 0x11c4 <fgetc>
    10a0:	97 fd       	sbrc	r25, 7
    10a2:	1f c0       	rjmp	.+62     	; 0x10e2 <vfscanf+0x17c>
    10a4:	81 14       	cp	r8, r1
    10a6:	91 04       	cpc	r9, r1
    10a8:	29 f0       	breq	.+10     	; 0x10b4 <vfscanf+0x14e>
    10aa:	f4 01       	movw	r30, r8
    10ac:	80 83       	st	Z, r24
    10ae:	c4 01       	movw	r24, r8
    10b0:	01 96       	adiw	r24, 0x01	; 1
    10b2:	4c 01       	movw	r8, r24
    10b4:	fa 94       	dec	r15
    10b6:	f1 10       	cpse	r15, r1
    10b8:	f0 cf       	rjmp	.-32     	; 0x109a <vfscanf+0x134>
    10ba:	00 fd       	sbrc	r16, 0
    10bc:	61 cf       	rjmp	.-318    	; 0xf80 <vfscanf+0x1a>
    10be:	53 94       	inc	r5
    10c0:	5f cf       	rjmp	.-322    	; 0xf80 <vfscanf+0x1a>
    10c2:	1b 35       	cpi	r17, 0x5B	; 91
    10c4:	b9 f4       	brne	.+46     	; 0x10f4 <vfscanf+0x18e>
    10c6:	9e 01       	movw	r18, r28
    10c8:	a4 01       	movw	r20, r8
    10ca:	6f 2d       	mov	r22, r15
    10cc:	c6 01       	movw	r24, r12
    10ce:	0e 94 fd 06 	call	0xdfa	; 0xdfa <conv_brk>
    10d2:	ec 01       	movw	r28, r24
    10d4:	89 2b       	or	r24, r25
    10d6:	89 f7       	brne	.-30     	; 0x10ba <vfscanf+0x154>
    10d8:	f6 01       	movw	r30, r12
    10da:	83 81       	ldd	r24, Z+3	; 0x03
    10dc:	80 73       	andi	r24, 0x30	; 48
    10de:	09 f4       	brne	.+2      	; 0x10e2 <vfscanf+0x17c>
    10e0:	77 cf       	rjmp	.-274    	; 0xfd0 <vfscanf+0x6a>
    10e2:	8f ef       	ldi	r24, 0xFF	; 255
    10e4:	9f ef       	ldi	r25, 0xFF	; 255
    10e6:	51 10       	cpse	r5, r1
    10e8:	73 cf       	rjmp	.-282    	; 0xfd0 <vfscanf+0x6a>
    10ea:	cd b7       	in	r28, 0x3d	; 61
    10ec:	de b7       	in	r29, 0x3e	; 62
    10ee:	ef e0       	ldi	r30, 0x0F	; 15
    10f0:	0c 94 71 03 	jmp	0x6e2	; 0x6e2 <__epilogue_restores__+0x6>
    10f4:	c6 01       	movw	r24, r12
    10f6:	0e 94 57 06 	call	0xcae	; 0xcae <skip_spaces>
    10fa:	97 fd       	sbrc	r25, 7
    10fc:	f2 cf       	rjmp	.-28     	; 0x10e2 <vfscanf+0x17c>
    10fe:	1f 36       	cpi	r17, 0x6F	; 111
    1100:	a9 f1       	breq	.+106    	; 0x116c <vfscanf+0x206>
    1102:	30 f4       	brcc	.+12     	; 0x1110 <vfscanf+0x1aa>
    1104:	14 36       	cpi	r17, 0x64	; 100
    1106:	41 f0       	breq	.+16     	; 0x1118 <vfscanf+0x1b2>
    1108:	19 36       	cpi	r17, 0x69	; 105
    110a:	39 f0       	breq	.+14     	; 0x111a <vfscanf+0x1b4>
    110c:	00 64       	ori	r16, 0x40	; 64
    110e:	05 c0       	rjmp	.+10     	; 0x111a <vfscanf+0x1b4>
    1110:	13 37       	cpi	r17, 0x73	; 115
    1112:	b9 f0       	breq	.+46     	; 0x1142 <vfscanf+0x1dc>
    1114:	15 37       	cpi	r17, 0x75	; 117
    1116:	d1 f7       	brne	.-12     	; 0x110c <vfscanf+0x1a6>
    1118:	00 62       	ori	r16, 0x20	; 32
    111a:	20 2f       	mov	r18, r16
    111c:	a4 01       	movw	r20, r8
    111e:	6f 2d       	mov	r22, r15
    1120:	c6 01       	movw	r24, r12
    1122:	0e 94 70 06 	call	0xce0	; 0xce0 <conv_int>
    1126:	81 11       	cpse	r24, r1
    1128:	c8 cf       	rjmp	.-112    	; 0x10ba <vfscanf+0x154>
    112a:	d6 cf       	rjmp	.-84     	; 0x10d8 <vfscanf+0x172>
    112c:	81 14       	cp	r8, r1
    112e:	91 04       	cpc	r9, r1
    1130:	29 f0       	breq	.+10     	; 0x113c <vfscanf+0x1d6>
    1132:	f4 01       	movw	r30, r8
    1134:	60 82       	st	Z, r6
    1136:	c4 01       	movw	r24, r8
    1138:	01 96       	adiw	r24, 0x01	; 1
    113a:	4c 01       	movw	r8, r24
    113c:	fa 94       	dec	r15
    113e:	ff 20       	and	r15, r15
    1140:	71 f0       	breq	.+28     	; 0x115e <vfscanf+0x1f8>
    1142:	c6 01       	movw	r24, r12
    1144:	0e 94 e2 08 	call	0x11c4	; 0x11c4 <fgetc>
    1148:	3c 01       	movw	r6, r24
    114a:	97 fd       	sbrc	r25, 7
    114c:	08 c0       	rjmp	.+16     	; 0x115e <vfscanf+0x1f8>
    114e:	0e 94 b8 08 	call	0x1170	; 0x1170 <isspace>
    1152:	89 2b       	or	r24, r25
    1154:	59 f3       	breq	.-42     	; 0x112c <vfscanf+0x1c6>
    1156:	b6 01       	movw	r22, r12
    1158:	c3 01       	movw	r24, r6
    115a:	0e 94 1e 09 	call	0x123c	; 0x123c <ungetc>
    115e:	81 14       	cp	r8, r1
    1160:	91 04       	cpc	r9, r1
    1162:	09 f4       	brne	.+2      	; 0x1166 <vfscanf+0x200>
    1164:	aa cf       	rjmp	.-172    	; 0x10ba <vfscanf+0x154>
    1166:	f4 01       	movw	r30, r8
    1168:	10 82       	st	Z, r1
    116a:	a7 cf       	rjmp	.-178    	; 0x10ba <vfscanf+0x154>
    116c:	00 61       	ori	r16, 0x10	; 16
    116e:	d5 cf       	rjmp	.-86     	; 0x111a <vfscanf+0x1b4>

00001170 <isspace>:
    1170:	91 11       	cpse	r25, r1
    1172:	0c 94 94 09 	jmp	0x1328	; 0x1328 <__ctype_isfalse>
    1176:	80 32       	cpi	r24, 0x20	; 32
    1178:	19 f0       	breq	.+6      	; 0x1180 <isspace+0x10>
    117a:	89 50       	subi	r24, 0x09	; 9
    117c:	85 50       	subi	r24, 0x05	; 5
    117e:	c8 f7       	brcc	.-14     	; 0x1172 <isspace+0x2>
    1180:	08 95       	ret

00001182 <strchr_P>:
    1182:	fc 01       	movw	r30, r24
    1184:	05 90       	lpm	r0, Z+
    1186:	06 16       	cp	r0, r22
    1188:	21 f0       	breq	.+8      	; 0x1192 <strchr_P+0x10>
    118a:	00 20       	and	r0, r0
    118c:	d9 f7       	brne	.-10     	; 0x1184 <strchr_P+0x2>
    118e:	c0 01       	movw	r24, r0
    1190:	08 95       	ret
    1192:	31 97       	sbiw	r30, 0x01	; 1
    1194:	cf 01       	movw	r24, r30
    1196:	08 95       	ret

00001198 <strnlen_P>:
    1198:	fc 01       	movw	r30, r24
    119a:	05 90       	lpm	r0, Z+
    119c:	61 50       	subi	r22, 0x01	; 1
    119e:	70 40       	sbci	r23, 0x00	; 0
    11a0:	01 10       	cpse	r0, r1
    11a2:	d8 f7       	brcc	.-10     	; 0x119a <strnlen_P+0x2>
    11a4:	80 95       	com	r24
    11a6:	90 95       	com	r25
    11a8:	8e 0f       	add	r24, r30
    11aa:	9f 1f       	adc	r25, r31
    11ac:	08 95       	ret

000011ae <strnlen>:
    11ae:	fc 01       	movw	r30, r24
    11b0:	61 50       	subi	r22, 0x01	; 1
    11b2:	70 40       	sbci	r23, 0x00	; 0
    11b4:	01 90       	ld	r0, Z+
    11b6:	01 10       	cpse	r0, r1
    11b8:	d8 f7       	brcc	.-10     	; 0x11b0 <strnlen+0x2>
    11ba:	80 95       	com	r24
    11bc:	90 95       	com	r25
    11be:	8e 0f       	add	r24, r30
    11c0:	9f 1f       	adc	r25, r31
    11c2:	08 95       	ret

000011c4 <fgetc>:
    11c4:	cf 93       	push	r28
    11c6:	df 93       	push	r29
    11c8:	ec 01       	movw	r28, r24
    11ca:	2b 81       	ldd	r18, Y+3	; 0x03
    11cc:	20 ff       	sbrs	r18, 0
    11ce:	1a c0       	rjmp	.+52     	; 0x1204 <fgetc+0x40>
    11d0:	26 ff       	sbrs	r18, 6
    11d2:	0c c0       	rjmp	.+24     	; 0x11ec <fgetc+0x28>
    11d4:	2f 7b       	andi	r18, 0xBF	; 191
    11d6:	2b 83       	std	Y+3, r18	; 0x03
    11d8:	8e 81       	ldd	r24, Y+6	; 0x06
    11da:	9f 81       	ldd	r25, Y+7	; 0x07
    11dc:	01 96       	adiw	r24, 0x01	; 1
    11de:	9f 83       	std	Y+7, r25	; 0x07
    11e0:	8e 83       	std	Y+6, r24	; 0x06
    11e2:	8a 81       	ldd	r24, Y+2	; 0x02
    11e4:	90 e0       	ldi	r25, 0x00	; 0
    11e6:	df 91       	pop	r29
    11e8:	cf 91       	pop	r28
    11ea:	08 95       	ret
    11ec:	22 ff       	sbrs	r18, 2
    11ee:	18 c0       	rjmp	.+48     	; 0x1220 <fgetc+0x5c>
    11f0:	e8 81       	ld	r30, Y
    11f2:	f9 81       	ldd	r31, Y+1	; 0x01
    11f4:	80 81       	ld	r24, Z
    11f6:	08 2e       	mov	r0, r24
    11f8:	00 0c       	add	r0, r0
    11fa:	99 0b       	sbc	r25, r25
    11fc:	00 97       	sbiw	r24, 0x00	; 0
    11fe:	29 f4       	brne	.+10     	; 0x120a <fgetc+0x46>
    1200:	20 62       	ori	r18, 0x20	; 32
    1202:	2b 83       	std	Y+3, r18	; 0x03
    1204:	8f ef       	ldi	r24, 0xFF	; 255
    1206:	9f ef       	ldi	r25, 0xFF	; 255
    1208:	ee cf       	rjmp	.-36     	; 0x11e6 <fgetc+0x22>
    120a:	31 96       	adiw	r30, 0x01	; 1
    120c:	f9 83       	std	Y+1, r31	; 0x01
    120e:	e8 83       	st	Y, r30
    1210:	2e 81       	ldd	r18, Y+6	; 0x06
    1212:	3f 81       	ldd	r19, Y+7	; 0x07
    1214:	2f 5f       	subi	r18, 0xFF	; 255
    1216:	3f 4f       	sbci	r19, 0xFF	; 255
    1218:	3f 83       	std	Y+7, r19	; 0x07
    121a:	2e 83       	std	Y+6, r18	; 0x06
    121c:	99 27       	eor	r25, r25
    121e:	e3 cf       	rjmp	.-58     	; 0x11e6 <fgetc+0x22>
    1220:	ea 85       	ldd	r30, Y+10	; 0x0a
    1222:	fb 85       	ldd	r31, Y+11	; 0x0b
    1224:	09 95       	icall
    1226:	97 ff       	sbrs	r25, 7
    1228:	f3 cf       	rjmp	.-26     	; 0x1210 <fgetc+0x4c>
    122a:	2b 81       	ldd	r18, Y+3	; 0x03
    122c:	01 96       	adiw	r24, 0x01	; 1
    122e:	21 f0       	breq	.+8      	; 0x1238 <fgetc+0x74>
    1230:	80 e2       	ldi	r24, 0x20	; 32
    1232:	82 2b       	or	r24, r18
    1234:	8b 83       	std	Y+3, r24	; 0x03
    1236:	e6 cf       	rjmp	.-52     	; 0x1204 <fgetc+0x40>
    1238:	80 e1       	ldi	r24, 0x10	; 16
    123a:	fb cf       	rjmp	.-10     	; 0x1232 <fgetc+0x6e>

0000123c <ungetc>:
    123c:	fb 01       	movw	r30, r22
    123e:	23 81       	ldd	r18, Z+3	; 0x03
    1240:	20 ff       	sbrs	r18, 0
    1242:	11 c0       	rjmp	.+34     	; 0x1266 <ungetc+0x2a>
    1244:	26 fd       	sbrc	r18, 6
    1246:	0f c0       	rjmp	.+30     	; 0x1266 <ungetc+0x2a>
    1248:	8f 3f       	cpi	r24, 0xFF	; 255
    124a:	98 07       	cpc	r25, r24
    124c:	71 f0       	breq	.+28     	; 0x126a <ungetc+0x2e>
    124e:	82 83       	std	Z+2, r24	; 0x02
    1250:	2f 7d       	andi	r18, 0xDF	; 223
    1252:	20 64       	ori	r18, 0x40	; 64
    1254:	23 83       	std	Z+3, r18	; 0x03
    1256:	26 81       	ldd	r18, Z+6	; 0x06
    1258:	37 81       	ldd	r19, Z+7	; 0x07
    125a:	21 50       	subi	r18, 0x01	; 1
    125c:	31 09       	sbc	r19, r1
    125e:	37 83       	std	Z+7, r19	; 0x07
    1260:	26 83       	std	Z+6, r18	; 0x06
    1262:	99 27       	eor	r25, r25
    1264:	08 95       	ret
    1266:	8f ef       	ldi	r24, 0xFF	; 255
    1268:	9f ef       	ldi	r25, 0xFF	; 255
    126a:	08 95       	ret

0000126c <__ultoa_invert>:
    126c:	fa 01       	movw	r30, r20
    126e:	aa 27       	eor	r26, r26
    1270:	28 30       	cpi	r18, 0x08	; 8
    1272:	51 f1       	breq	.+84     	; 0x12c8 <__ultoa_invert+0x5c>
    1274:	20 31       	cpi	r18, 0x10	; 16
    1276:	81 f1       	breq	.+96     	; 0x12d8 <__ultoa_invert+0x6c>
    1278:	e8 94       	clt
    127a:	6f 93       	push	r22
    127c:	6e 7f       	andi	r22, 0xFE	; 254
    127e:	6e 5f       	subi	r22, 0xFE	; 254
    1280:	7f 4f       	sbci	r23, 0xFF	; 255
    1282:	8f 4f       	sbci	r24, 0xFF	; 255
    1284:	9f 4f       	sbci	r25, 0xFF	; 255
    1286:	af 4f       	sbci	r26, 0xFF	; 255
    1288:	b1 e0       	ldi	r27, 0x01	; 1
    128a:	3e d0       	rcall	.+124    	; 0x1308 <__ultoa_invert+0x9c>
    128c:	b4 e0       	ldi	r27, 0x04	; 4
    128e:	3c d0       	rcall	.+120    	; 0x1308 <__ultoa_invert+0x9c>
    1290:	67 0f       	add	r22, r23
    1292:	78 1f       	adc	r23, r24
    1294:	89 1f       	adc	r24, r25
    1296:	9a 1f       	adc	r25, r26
    1298:	a1 1d       	adc	r26, r1
    129a:	68 0f       	add	r22, r24
    129c:	79 1f       	adc	r23, r25
    129e:	8a 1f       	adc	r24, r26
    12a0:	91 1d       	adc	r25, r1
    12a2:	a1 1d       	adc	r26, r1
    12a4:	6a 0f       	add	r22, r26
    12a6:	71 1d       	adc	r23, r1
    12a8:	81 1d       	adc	r24, r1
    12aa:	91 1d       	adc	r25, r1
    12ac:	a1 1d       	adc	r26, r1
    12ae:	20 d0       	rcall	.+64     	; 0x12f0 <__ultoa_invert+0x84>
    12b0:	09 f4       	brne	.+2      	; 0x12b4 <__ultoa_invert+0x48>
    12b2:	68 94       	set
    12b4:	3f 91       	pop	r19
    12b6:	2a e0       	ldi	r18, 0x0A	; 10
    12b8:	26 9f       	mul	r18, r22
    12ba:	11 24       	eor	r1, r1
    12bc:	30 19       	sub	r19, r0
    12be:	30 5d       	subi	r19, 0xD0	; 208
    12c0:	31 93       	st	Z+, r19
    12c2:	de f6       	brtc	.-74     	; 0x127a <__ultoa_invert+0xe>
    12c4:	cf 01       	movw	r24, r30
    12c6:	08 95       	ret
    12c8:	46 2f       	mov	r20, r22
    12ca:	47 70       	andi	r20, 0x07	; 7
    12cc:	40 5d       	subi	r20, 0xD0	; 208
    12ce:	41 93       	st	Z+, r20
    12d0:	b3 e0       	ldi	r27, 0x03	; 3
    12d2:	0f d0       	rcall	.+30     	; 0x12f2 <__ultoa_invert+0x86>
    12d4:	c9 f7       	brne	.-14     	; 0x12c8 <__ultoa_invert+0x5c>
    12d6:	f6 cf       	rjmp	.-20     	; 0x12c4 <__ultoa_invert+0x58>
    12d8:	46 2f       	mov	r20, r22
    12da:	4f 70       	andi	r20, 0x0F	; 15
    12dc:	40 5d       	subi	r20, 0xD0	; 208
    12de:	4a 33       	cpi	r20, 0x3A	; 58
    12e0:	18 f0       	brcs	.+6      	; 0x12e8 <__ultoa_invert+0x7c>
    12e2:	49 5d       	subi	r20, 0xD9	; 217
    12e4:	31 fd       	sbrc	r19, 1
    12e6:	40 52       	subi	r20, 0x20	; 32
    12e8:	41 93       	st	Z+, r20
    12ea:	02 d0       	rcall	.+4      	; 0x12f0 <__ultoa_invert+0x84>
    12ec:	a9 f7       	brne	.-22     	; 0x12d8 <__ultoa_invert+0x6c>
    12ee:	ea cf       	rjmp	.-44     	; 0x12c4 <__ultoa_invert+0x58>
    12f0:	b4 e0       	ldi	r27, 0x04	; 4
    12f2:	a6 95       	lsr	r26
    12f4:	97 95       	ror	r25
    12f6:	87 95       	ror	r24
    12f8:	77 95       	ror	r23
    12fa:	67 95       	ror	r22
    12fc:	ba 95       	dec	r27
    12fe:	c9 f7       	brne	.-14     	; 0x12f2 <__ultoa_invert+0x86>
    1300:	00 97       	sbiw	r24, 0x00	; 0
    1302:	61 05       	cpc	r22, r1
    1304:	71 05       	cpc	r23, r1
    1306:	08 95       	ret
    1308:	9b 01       	movw	r18, r22
    130a:	ac 01       	movw	r20, r24
    130c:	0a 2e       	mov	r0, r26
    130e:	06 94       	lsr	r0
    1310:	57 95       	ror	r21
    1312:	47 95       	ror	r20
    1314:	37 95       	ror	r19
    1316:	27 95       	ror	r18
    1318:	ba 95       	dec	r27
    131a:	c9 f7       	brne	.-14     	; 0x130e <__ultoa_invert+0xa2>
    131c:	62 0f       	add	r22, r18
    131e:	73 1f       	adc	r23, r19
    1320:	84 1f       	adc	r24, r20
    1322:	95 1f       	adc	r25, r21
    1324:	a0 1d       	adc	r26, r0
    1326:	08 95       	ret

00001328 <__ctype_isfalse>:
    1328:	99 27       	eor	r25, r25
    132a:	88 27       	eor	r24, r24

0000132c <__ctype_istrue>:
    132c:	08 95       	ret

0000132e <eeprom_read_block>:
    132e:	dc 01       	movw	r26, r24
    1330:	cb 01       	movw	r24, r22

00001332 <eeprom_read_blraw>:
    1332:	fc 01       	movw	r30, r24
    1334:	f9 99       	sbic	0x1f, 1	; 31
    1336:	fe cf       	rjmp	.-4      	; 0x1334 <eeprom_read_blraw+0x2>
    1338:	06 c0       	rjmp	.+12     	; 0x1346 <eeprom_read_blraw+0x14>
    133a:	f2 bd       	out	0x22, r31	; 34
    133c:	e1 bd       	out	0x21, r30	; 33
    133e:	f8 9a       	sbi	0x1f, 0	; 31
    1340:	31 96       	adiw	r30, 0x01	; 1
    1342:	00 b4       	in	r0, 0x20	; 32
    1344:	0d 92       	st	X+, r0
    1346:	41 50       	subi	r20, 0x01	; 1
    1348:	50 40       	sbci	r21, 0x00	; 0
    134a:	b8 f7       	brcc	.-18     	; 0x133a <eeprom_read_blraw+0x8>
    134c:	08 95       	ret

0000134e <eeprom_read_byte>:
    134e:	f9 99       	sbic	0x1f, 1	; 31
    1350:	fe cf       	rjmp	.-4      	; 0x134e <eeprom_read_byte>
    1352:	92 bd       	out	0x22, r25	; 34
    1354:	81 bd       	out	0x21, r24	; 33
    1356:	f8 9a       	sbi	0x1f, 0	; 31
    1358:	99 27       	eor	r25, r25
    135a:	80 b5       	in	r24, 0x20	; 32
    135c:	08 95       	ret

0000135e <eeprom_write_block>:
    135e:	dc 01       	movw	r26, r24
    1360:	cb 01       	movw	r24, r22
    1362:	03 c0       	rjmp	.+6      	; 0x136a <eeprom_write_block+0xc>
    1364:	2d 91       	ld	r18, X+
    1366:	0e 94 ba 09 	call	0x1374	; 0x1374 <eeprom_write_r18>
    136a:	41 50       	subi	r20, 0x01	; 1
    136c:	50 40       	sbci	r21, 0x00	; 0
    136e:	d0 f7       	brcc	.-12     	; 0x1364 <eeprom_write_block+0x6>
    1370:	08 95       	ret

00001372 <eeprom_write_byte>:
    1372:	26 2f       	mov	r18, r22

00001374 <eeprom_write_r18>:
    1374:	f9 99       	sbic	0x1f, 1	; 31
    1376:	fe cf       	rjmp	.-4      	; 0x1374 <eeprom_write_r18>
    1378:	1f ba       	out	0x1f, r1	; 31
    137a:	92 bd       	out	0x22, r25	; 34
    137c:	81 bd       	out	0x21, r24	; 33
    137e:	20 bd       	out	0x20, r18	; 32
    1380:	0f b6       	in	r0, 0x3f	; 63
    1382:	f8 94       	cli
    1384:	fa 9a       	sbi	0x1f, 2	; 31
    1386:	f9 9a       	sbi	0x1f, 1	; 31
    1388:	0f be       	out	0x3f, r0	; 63
    138a:	01 96       	adiw	r24, 0x01	; 1
    138c:	08 95       	ret

Disassembly of section .core_syscalls:

0000138e <syscall>:
    138e:	cf 93       	push	r28
    1390:	df 93       	push	r29
    1392:	00 d0       	rcall	.+0      	; 0x1394 <syscall+0x6>
    1394:	1f 92       	push	r1
    1396:	cd b7       	in	r28, 0x3d	; 61
    1398:	de b7       	in	r29, 0x3e	; 62
    139a:	89 83       	std	Y+1, r24	; 0x01
    139c:	7b 83       	std	Y+3, r23	; 0x03
    139e:	6a 83       	std	Y+2, r22	; 0x02
    13a0:	89 81       	ldd	r24, Y+1	; 0x01
    13a2:	88 2f       	mov	r24, r24
    13a4:	90 e0       	ldi	r25, 0x00	; 0
    13a6:	83 30       	cpi	r24, 0x03	; 3
    13a8:	91 05       	cpc	r25, r1
    13aa:	01 f1       	breq	.+64     	; 0x13ec <syscall+0x5e>
    13ac:	84 30       	cpi	r24, 0x04	; 4
    13ae:	91 05       	cpc	r25, r1
    13b0:	34 f4       	brge	.+12     	; 0x13be <syscall+0x30>
    13b2:	81 30       	cpi	r24, 0x01	; 1
    13b4:	91 05       	cpc	r25, r1
    13b6:	61 f0       	breq	.+24     	; 0x13d0 <syscall+0x42>
    13b8:	02 97       	sbiw	r24, 0x02	; 2
    13ba:	79 f0       	breq	.+30     	; 0x13da <syscall+0x4c>
    13bc:	49 c0       	rjmp	.+146    	; 0x1450 <syscall+0xc2>
    13be:	86 30       	cpi	r24, 0x06	; 6
    13c0:	91 05       	cpc	r25, r1
    13c2:	69 f1       	breq	.+90     	; 0x141e <syscall+0x90>
    13c4:	87 30       	cpi	r24, 0x07	; 7
    13c6:	91 05       	cpc	r25, r1
    13c8:	b1 f0       	breq	.+44     	; 0x13f6 <syscall+0x68>
    13ca:	05 97       	sbiw	r24, 0x05	; 5
    13cc:	d9 f0       	breq	.+54     	; 0x1404 <syscall+0x76>
    13ce:	40 c0       	rjmp	.+128    	; 0x1450 <syscall+0xc2>
    13d0:	0e 94 02 00 	call	0x4	; 0x4 <__usart_init>
    13d4:	80 e0       	ldi	r24, 0x00	; 0
    13d6:	90 e0       	ldi	r25, 0x00	; 0
    13d8:	3d c0       	rjmp	.+122    	; 0x1454 <syscall+0xc6>
    13da:	8a 81       	ldd	r24, Y+2	; 0x02
    13dc:	9b 81       	ldd	r25, Y+3	; 0x03
    13de:	fc 01       	movw	r30, r24
    13e0:	80 81       	ld	r24, Z
    13e2:	0e 94 2e 00 	call	0x5c	; 0x5c <__usart_send_char>
    13e6:	80 e0       	ldi	r24, 0x00	; 0
    13e8:	90 e0       	ldi	r25, 0x00	; 0
    13ea:	34 c0       	rjmp	.+104    	; 0x1454 <syscall+0xc6>
    13ec:	80 e0       	ldi	r24, 0x00	; 0
    13ee:	90 e0       	ldi	r25, 0x00	; 0
    13f0:	0e 94 4a 00 	call	0x94	; 0x94 <__usart_receive_char>
    13f4:	2f c0       	rjmp	.+94     	; 0x1454 <syscall+0xc6>
    13f6:	8a 81       	ldd	r24, Y+2	; 0x02
    13f8:	9b 81       	ldd	r25, Y+3	; 0x03
    13fa:	fc 01       	movw	r30, r24
    13fc:	80 81       	ld	r24, Z
    13fe:	0e 94 f2 01 	call	0x3e4	; 0x3e4 <__call>
    1402:	28 c0       	rjmp	.+80     	; 0x1454 <syscall+0xc6>
    1404:	8a 81       	ldd	r24, Y+2	; 0x02
    1406:	9b 81       	ldd	r25, Y+3	; 0x03
    1408:	9c 01       	movw	r18, r24
    140a:	2f 5f       	subi	r18, 0xFF	; 255
    140c:	3f 4f       	sbci	r19, 0xFF	; 255
    140e:	8a 81       	ldd	r24, Y+2	; 0x02
    1410:	9b 81       	ldd	r25, Y+3	; 0x03
    1412:	fc 01       	movw	r30, r24
    1414:	80 81       	ld	r24, Z
    1416:	b9 01       	movw	r22, r18
    1418:	0e 94 06 01 	call	0x20c	; 0x20c <__fstat_E>
    141c:	1b c0       	rjmp	.+54     	; 0x1454 <syscall+0xc6>
    141e:	8a 81       	ldd	r24, Y+2	; 0x02
    1420:	9b 81       	ldd	r25, Y+3	; 0x03
    1422:	fc 01       	movw	r30, r24
    1424:	80 81       	ld	r24, Z
    1426:	91 81       	ldd	r25, Z+1	; 0x01
    1428:	04 96       	adiw	r24, 0x04	; 4
    142a:	2a 81       	ldd	r18, Y+2	; 0x02
    142c:	3b 81       	ldd	r19, Y+3	; 0x03
    142e:	a9 01       	movw	r20, r18
    1430:	48 0f       	add	r20, r24
    1432:	59 1f       	adc	r21, r25
    1434:	8a 81       	ldd	r24, Y+2	; 0x02
    1436:	9b 81       	ldd	r25, Y+3	; 0x03
    1438:	9c 01       	movw	r18, r24
    143a:	2c 5f       	subi	r18, 0xFC	; 252
    143c:	3f 4f       	sbci	r19, 0xFF	; 255
    143e:	8a 81       	ldd	r24, Y+2	; 0x02
    1440:	9b 81       	ldd	r25, Y+3	; 0x03
    1442:	fc 01       	movw	r30, r24
    1444:	80 81       	ld	r24, Z
    1446:	91 81       	ldd	r25, Z+1	; 0x01
    1448:	b9 01       	movw	r22, r18
    144a:	0e 94 51 01 	call	0x2a2	; 0x2a2 <__ffind_E>
    144e:	02 c0       	rjmp	.+4      	; 0x1454 <syscall+0xc6>
    1450:	8f ef       	ldi	r24, 0xFF	; 255
    1452:	9f ef       	ldi	r25, 0xFF	; 255
    1454:	0f 90       	pop	r0
    1456:	0f 90       	pop	r0
    1458:	0f 90       	pop	r0
    145a:	df 91       	pop	r29
    145c:	cf 91       	pop	r28
    145e:	08 95       	ret

Disassembly of section .test:

00001460 <test>:
    1460:	cf 93       	push	r28
    1462:	df 93       	push	r29
    1464:	cd b7       	in	r28, 0x3d	; 61
    1466:	de b7       	in	r29, 0x3e	; 62
    1468:	8e e4       	ldi	r24, 0x4E	; 78
    146a:	99 e1       	ldi	r25, 0x19	; 25
    146c:	89 2f       	mov	r24, r25
    146e:	8f 93       	push	r24
    1470:	8e e4       	ldi	r24, 0x4E	; 78
    1472:	99 e1       	ldi	r25, 0x19	; 25
    1474:	8f 93       	push	r24
    1476:	0e 94 10 04 	call	0x820	; 0x820 <printf_P>
    147a:	0f 90       	pop	r0
    147c:	0f 90       	pop	r0
    147e:	80 e0       	ldi	r24, 0x00	; 0
    1480:	90 e0       	ldi	r25, 0x00	; 0
    1482:	df 91       	pop	r29
    1484:	cf 91       	pop	r28
    1486:	08 95       	ret

Disassembly of section .mshell:

00001800 <mshell>:
    1800:	cf 93       	push	r28
    1802:	df 93       	push	r29
    1804:	cd b7       	in	r28, 0x3d	; 61
    1806:	de b7       	in	r29, 0x3e	; 62
    1808:	cc 52       	subi	r28, 0x2C	; 44
    180a:	d1 40       	sbci	r29, 0x01	; 1
    180c:	0f b6       	in	r0, 0x3f	; 63
    180e:	f8 94       	cli
    1810:	de bf       	out	0x3e, r29	; 62
    1812:	0f be       	out	0x3f, r0	; 63
    1814:	cd bf       	out	0x3d, r28	; 61
    1816:	19 82       	std	Y+1, r1	; 0x01
    1818:	ce 01       	movw	r24, r28
    181a:	8b 59       	subi	r24, 0x9B	; 155
    181c:	9f 4f       	sbci	r25, 0xFF	; 255
    181e:	2f e2       	ldi	r18, 0x2F	; 47
    1820:	fc 01       	movw	r30, r24
    1822:	20 83       	st	Z, r18
    1824:	ce 01       	movw	r24, r28
    1826:	8b 59       	subi	r24, 0x9B	; 155
    1828:	9f 4f       	sbci	r25, 0xFF	; 255
    182a:	fc 01       	movw	r30, r24
    182c:	11 82       	std	Z+1, r1	; 0x01
    182e:	ce 01       	movw	r24, r28
    1830:	8b 59       	subi	r24, 0x9B	; 155
    1832:	9f 4f       	sbci	r25, 0xFF	; 255
    1834:	29 2f       	mov	r18, r25
    1836:	2f 93       	push	r18
    1838:	8f 93       	push	r24
    183a:	82 e4       	ldi	r24, 0x42	; 66
    183c:	99 e1       	ldi	r25, 0x19	; 25
    183e:	89 2f       	mov	r24, r25
    1840:	8f 93       	push	r24
    1842:	82 e4       	ldi	r24, 0x42	; 66
    1844:	99 e1       	ldi	r25, 0x19	; 25
    1846:	8f 93       	push	r24
    1848:	0e 94 10 04 	call	0x820	; 0x820 <printf_P>
    184c:	0f 90       	pop	r0
    184e:	0f 90       	pop	r0
    1850:	0f 90       	pop	r0
    1852:	0f 90       	pop	r0
    1854:	ce 01       	movw	r24, r28
    1856:	01 96       	adiw	r24, 0x01	; 1
    1858:	bc 01       	movw	r22, r24
    185a:	88 e4       	ldi	r24, 0x48	; 72
    185c:	99 e1       	ldi	r25, 0x19	; 25
    185e:	0e 94 3b 02 	call	0x476	; 0x476 <escanf_P>
    1862:	ce 01       	movw	r24, r28
    1864:	8b 59       	subi	r24, 0x9B	; 155
    1866:	9f 4f       	sbci	r25, 0xFF	; 255
    1868:	9e 01       	movw	r18, r28
    186a:	2f 5f       	subi	r18, 0xFF	; 255
    186c:	3f 4f       	sbci	r19, 0xFF	; 255
    186e:	b9 01       	movw	r22, r18
    1870:	0e 94 a5 03 	call	0x74a	; 0x74a <strcat>
    1874:	8b e4       	ldi	r24, 0x4B	; 75
    1876:	99 e1       	ldi	r25, 0x19	; 25
    1878:	89 2f       	mov	r24, r25
    187a:	8f 93       	push	r24
    187c:	8b e4       	ldi	r24, 0x4B	; 75
    187e:	99 e1       	ldi	r25, 0x19	; 25
    1880:	8f 93       	push	r24
    1882:	0e 94 10 04 	call	0x820	; 0x820 <printf_P>
    1886:	0f 90       	pop	r0
    1888:	0f 90       	pop	r0
    188a:	d1 cf       	rjmp	.-94     	; 0x182e <mshell+0x2e>
