
output.elf:     file format elf32-avr

Sections:
Idx Name          Size      VMA       LMA       File off  Algn
  0 .text         00000f40  00000000  00000000  00000094  2**0
                  CONTENTS, ALLOC, LOAD, READONLY, CODE
  1 .trampolines  00000000  00000f40  00000f40  00000fd4  2**1
                  CONTENTS, ALLOC, LOAD, READONLY, CODE
  2 .vectors      00000068  00000f40  00000f40  00000fd4  2**0
                  CONTENTS, ALLOC, LOAD, READONLY, CODE
  3 .init2        0000000c  00000fa8  00000fa8  0000103c  2**0
                  CONTENTS, ALLOC, LOAD, READONLY, CODE
  4 .init9        00000008  00000fb4  00000fb4  00001048  2**0
                  CONTENTS, ALLOC, LOAD, READONLY, CODE
  5 .text.libgcc.prologue 0000006e  00000fbc  00000fbc  00001050  2**0
                  CONTENTS, ALLOC, LOAD, READONLY, CODE
  6 .fini0        00000004  0000102a  0000102a  000010be  2**0
                  CONTENTS, ALLOC, LOAD, READONLY, CODE
  7 .init4        00000026  0000102e  0000102e  000010c2  2**0
                  CONTENTS, ALLOC, LOAD, READONLY, CODE
  8 .text.avr-libc 00000cd2  00001054  00001054  000010e8  2**0
                  CONTENTS, ALLOC, LOAD, READONLY, CODE
  9 .core_syscalls 000000d2  00001d26  00001d26  00001dba  2**0
                  CONTENTS, ALLOC, LOAD, READONLY, CODE
 10 .test         00000028  00002800  00002800  00001e8c  2**0
                  CONTENTS, ALLOC, LOAD, READONLY, CODE
 11 .mshell       00000300  00002828  00002828  00001eb4  2**0
                  CONTENTS, ALLOC, LOAD, READONLY, CODE
 12 .rodata       0000018c  00002b28  00002b28  000021b4  2**0
                  CONTENTS, ALLOC, LOAD, READONLY, DATA
 13 .progmem.data 0000000c  00002cb4  00002cb4  00002340  2**0
                  CONTENTS, ALLOC, LOAD, READONLY, DATA
 14 .bss          00000008  00800100  00800100  0000234c  2**0
                  ALLOC
 15 .note.gnu.avr.deviceinfo 00000040  00000000  00000000  0000234c  2**2
                  CONTENTS, READONLY
 16 .debug_abbrev 000005a2  00000000  00000000  0000238c  2**0
                  CONTENTS, READONLY, DEBUGGING
 17 .debug_info   000005f4  00000000  00000000  0000292e  2**0
                  CONTENTS, READONLY, DEBUGGING
 18 .debug_line   0000001a  00000000  00000000  00002f22  2**0
                  CONTENTS, READONLY, DEBUGGING
 19 .debug_str    00000208  00000000  00000000  00002f3c  2**0
                  CONTENTS, READONLY, DEBUGGING

Disassembly of section .text:

00000000 <_binary___linkers_files_start>:
   0:	00 02       	muls	r16, r16
	...
   e:	00 00       	nop
  10:	00 02       	muls	r16, r16
  12:	01 00       	.word	0x0001	; ????
  14:	00 64       	ori	r16, 0x40	; 64
  16:	65 76       	andi	r22, 0x65	; 101
	...
  20:	00 02       	muls	r16, r16
  22:	02 01       	movw	r0, r4
  24:	00 62       	ori	r16, 0x20	; 32
  26:	69 62       	ori	r22, 0x29	; 41
	...
  30:	00 02       	muls	r16, r16
  32:	03 02       	muls	r16, r19
  34:	00 6c       	ori	r16, 0xC0	; 192
  36:	69 62       	ori	r22, 0x29	; 41
	...
  40:	00 02       	muls	r16, r16
  42:	04 00       	.word	0x0004	; ????
  44:	00 75       	andi	r16, 0x50	; 80
  46:	73 72       	andi	r23, 0x23	; 35
	...
  50:	00 02       	muls	r16, r16
  52:	05 04       	cpc	r0, r5
  54:	00 62       	ori	r16, 0x20	; 32
  56:	69 6e       	ori	r22, 0xE9	; 233
	...
  60:	00 00       	nop
  62:	06 01       	movw	r0, r12
  64:	01 74       	andi	r16, 0x41	; 65
  66:	65 73       	andi	r22, 0x35	; 53
  68:	74 00       	.word	0x0074	; ????
  6a:	00 00       	nop
  6c:	00 00       	nop
  6e:	00 00       	nop
  70:	ff ff       	.word	0xffff	; ????
  72:	ff ff       	.word	0xffff	; ????
  74:	ff ff       	.word	0xffff	; ????
  76:	ff ff       	.word	0xffff	; ????
  78:	ff ff       	.word	0xffff	; ????
  7a:	ff ff       	.word	0xffff	; ????
  7c:	ff ff       	.word	0xffff	; ????
  7e:	ff ff       	.word	0xffff	; ????
  80:	ff ff       	.word	0xffff	; ????
  82:	ff ff       	.word	0xffff	; ????
  84:	ff ff       	.word	0xffff	; ????
  86:	ff ff       	.word	0xffff	; ????
  88:	ff ff       	.word	0xffff	; ????
  8a:	ff ff       	.word	0xffff	; ????
  8c:	ff ff       	.word	0xffff	; ????
  8e:	ff ff       	.word	0xffff	; ????
  90:	ff ff       	.word	0xffff	; ????
  92:	ff ff       	.word	0xffff	; ????
  94:	ff ff       	.word	0xffff	; ????
  96:	ff ff       	.word	0xffff	; ????
  98:	ff ff       	.word	0xffff	; ????
  9a:	ff ff       	.word	0xffff	; ????
  9c:	ff ff       	.word	0xffff	; ????
  9e:	ff ff       	.word	0xffff	; ????
  a0:	ff ff       	.word	0xffff	; ????
  a2:	ff ff       	.word	0xffff	; ????
  a4:	ff ff       	.word	0xffff	; ????
  a6:	ff ff       	.word	0xffff	; ????
  a8:	ff ff       	.word	0xffff	; ????
  aa:	ff ff       	.word	0xffff	; ????
  ac:	ff ff       	.word	0xffff	; ????
  ae:	ff ff       	.word	0xffff	; ????
  b0:	ff ff       	.word	0xffff	; ????
  b2:	ff ff       	.word	0xffff	; ????
  b4:	ff ff       	.word	0xffff	; ????
  b6:	ff ff       	.word	0xffff	; ????
  b8:	ff ff       	.word	0xffff	; ????
  ba:	ff ff       	.word	0xffff	; ????
  bc:	ff ff       	.word	0xffff	; ????
  be:	ff ff       	.word	0xffff	; ????
  c0:	ff ff       	.word	0xffff	; ????
  c2:	ff ff       	.word	0xffff	; ????
  c4:	ff ff       	.word	0xffff	; ????
  c6:	ff ff       	.word	0xffff	; ????
  c8:	ff ff       	.word	0xffff	; ????
  ca:	ff ff       	.word	0xffff	; ????
  cc:	ff ff       	.word	0xffff	; ????
  ce:	ff ff       	.word	0xffff	; ????
  d0:	ff ff       	.word	0xffff	; ????
  d2:	ff ff       	.word	0xffff	; ????
  d4:	ff ff       	.word	0xffff	; ????
  d6:	ff ff       	.word	0xffff	; ????
  d8:	ff ff       	.word	0xffff	; ????
  da:	ff ff       	.word	0xffff	; ????
  dc:	ff ff       	.word	0xffff	; ????
  de:	ff ff       	.word	0xffff	; ????
  e0:	ff ff       	.word	0xffff	; ????
  e2:	ff ff       	.word	0xffff	; ????
  e4:	ff ff       	.word	0xffff	; ????
  e6:	ff ff       	.word	0xffff	; ????
  e8:	ff ff       	.word	0xffff	; ????
  ea:	ff ff       	.word	0xffff	; ????
  ec:	ff ff       	.word	0xffff	; ????
  ee:	ff ff       	.word	0xffff	; ????
  f0:	ff ff       	.word	0xffff	; ????
  f2:	ff ff       	.word	0xffff	; ????
  f4:	ff ff       	.word	0xffff	; ????
  f6:	ff ff       	.word	0xffff	; ????
  f8:	ff ff       	.word	0xffff	; ????
  fa:	ff ff       	.word	0xffff	; ????
  fc:	ff ff       	.word	0xffff	; ????
  fe:	ff ff       	.word	0xffff	; ????
 100:	ff ff       	.word	0xffff	; ????
 102:	ff ff       	.word	0xffff	; ????
 104:	ff ff       	.word	0xffff	; ????
 106:	ff ff       	.word	0xffff	; ????
 108:	ff ff       	.word	0xffff	; ????
 10a:	ff ff       	.word	0xffff	; ????
 10c:	ff ff       	.word	0xffff	; ????
 10e:	ff ff       	.word	0xffff	; ????
 110:	ff ff       	.word	0xffff	; ????
 112:	ff ff       	.word	0xffff	; ????
 114:	ff ff       	.word	0xffff	; ????
 116:	ff ff       	.word	0xffff	; ????
 118:	ff ff       	.word	0xffff	; ????
 11a:	ff ff       	.word	0xffff	; ????
 11c:	ff ff       	.word	0xffff	; ????
 11e:	ff ff       	.word	0xffff	; ????
 120:	ff ff       	.word	0xffff	; ????
 122:	ff ff       	.word	0xffff	; ????
 124:	ff ff       	.word	0xffff	; ????
 126:	ff ff       	.word	0xffff	; ????
 128:	ff ff       	.word	0xffff	; ????
 12a:	ff ff       	.word	0xffff	; ????
 12c:	ff ff       	.word	0xffff	; ????
 12e:	ff ff       	.word	0xffff	; ????
 130:	ff ff       	.word	0xffff	; ????
 132:	ff ff       	.word	0xffff	; ????
 134:	ff ff       	.word	0xffff	; ????
 136:	ff ff       	.word	0xffff	; ????
 138:	ff ff       	.word	0xffff	; ????
 13a:	ff ff       	.word	0xffff	; ????
 13c:	ff ff       	.word	0xffff	; ????
 13e:	ff ff       	.word	0xffff	; ????
 140:	ff ff       	.word	0xffff	; ????
 142:	ff ff       	.word	0xffff	; ????
 144:	ff ff       	.word	0xffff	; ????
 146:	ff ff       	.word	0xffff	; ????
 148:	ff ff       	.word	0xffff	; ????
 14a:	ff ff       	.word	0xffff	; ????
 14c:	ff ff       	.word	0xffff	; ????
 14e:	ff ff       	.word	0xffff	; ????
 150:	ff ff       	.word	0xffff	; ????
 152:	ff ff       	.word	0xffff	; ????
 154:	ff ff       	.word	0xffff	; ????
 156:	ff ff       	.word	0xffff	; ????
 158:	ff ff       	.word	0xffff	; ????
 15a:	ff ff       	.word	0xffff	; ????
 15c:	ff ff       	.word	0xffff	; ????
 15e:	ff ff       	.word	0xffff	; ????
 160:	ff ff       	.word	0xffff	; ????
 162:	ff ff       	.word	0xffff	; ????
 164:	ff ff       	.word	0xffff	; ????
 166:	ff ff       	.word	0xffff	; ????
 168:	ff ff       	.word	0xffff	; ????
 16a:	ff ff       	.word	0xffff	; ????
 16c:	ff ff       	.word	0xffff	; ????
 16e:	ff ff       	.word	0xffff	; ????
 170:	ff ff       	.word	0xffff	; ????
 172:	ff ff       	.word	0xffff	; ????
 174:	ff ff       	.word	0xffff	; ????
 176:	ff ff       	.word	0xffff	; ????
 178:	ff ff       	.word	0xffff	; ????
 17a:	ff ff       	.word	0xffff	; ????
 17c:	ff ff       	.word	0xffff	; ????
 17e:	ff ff       	.word	0xffff	; ????
 180:	ff ff       	.word	0xffff	; ????
 182:	ff ff       	.word	0xffff	; ????
 184:	ff ff       	.word	0xffff	; ????
 186:	ff ff       	.word	0xffff	; ????
 188:	ff ff       	.word	0xffff	; ????
 18a:	ff ff       	.word	0xffff	; ????
 18c:	ff ff       	.word	0xffff	; ????
 18e:	ff ff       	.word	0xffff	; ????
 190:	ff ff       	.word	0xffff	; ????
 192:	ff ff       	.word	0xffff	; ????
 194:	ff ff       	.word	0xffff	; ????
 196:	ff ff       	.word	0xffff	; ????
 198:	ff ff       	.word	0xffff	; ????
 19a:	ff ff       	.word	0xffff	; ????
 19c:	ff ff       	.word	0xffff	; ????
 19e:	ff ff       	.word	0xffff	; ????
 1a0:	ff ff       	.word	0xffff	; ????
 1a2:	ff ff       	.word	0xffff	; ????
 1a4:	ff ff       	.word	0xffff	; ????
 1a6:	ff ff       	.word	0xffff	; ????
 1a8:	ff ff       	.word	0xffff	; ????
 1aa:	ff ff       	.word	0xffff	; ????
 1ac:	ff ff       	.word	0xffff	; ????
 1ae:	ff ff       	.word	0xffff	; ????
 1b0:	ff ff       	.word	0xffff	; ????
 1b2:	ff ff       	.word	0xffff	; ????
 1b4:	ff ff       	.word	0xffff	; ????
 1b6:	ff ff       	.word	0xffff	; ????
 1b8:	ff ff       	.word	0xffff	; ????
 1ba:	ff ff       	.word	0xffff	; ????
 1bc:	ff ff       	.word	0xffff	; ????
 1be:	ff ff       	.word	0xffff	; ????
 1c0:	ff ff       	.word	0xffff	; ????
 1c2:	ff ff       	.word	0xffff	; ????
 1c4:	ff ff       	.word	0xffff	; ????
 1c6:	ff ff       	.word	0xffff	; ????
 1c8:	ff ff       	.word	0xffff	; ????
 1ca:	ff ff       	.word	0xffff	; ????
 1cc:	ff ff       	.word	0xffff	; ????
 1ce:	ff ff       	.word	0xffff	; ????
 1d0:	ff ff       	.word	0xffff	; ????
 1d2:	ff ff       	.word	0xffff	; ????
 1d4:	ff ff       	.word	0xffff	; ????
 1d6:	ff ff       	.word	0xffff	; ????
 1d8:	ff ff       	.word	0xffff	; ????
 1da:	ff ff       	.word	0xffff	; ????
 1dc:	ff ff       	.word	0xffff	; ????
 1de:	ff ff       	.word	0xffff	; ????
 1e0:	ff ff       	.word	0xffff	; ????
 1e2:	ff ff       	.word	0xffff	; ????
 1e4:	ff ff       	.word	0xffff	; ????
 1e6:	ff ff       	.word	0xffff	; ????
 1e8:	ff ff       	.word	0xffff	; ????
 1ea:	ff ff       	.word	0xffff	; ????
 1ec:	ff ff       	.word	0xffff	; ????
 1ee:	ff ff       	.word	0xffff	; ????
 1f0:	ff ff       	.word	0xffff	; ????
 1f2:	ff ff       	.word	0xffff	; ????
 1f4:	ff ff       	.word	0xffff	; ????
 1f6:	ff ff       	.word	0xffff	; ????
 1f8:	ff ff       	.word	0xffff	; ????
 1fa:	ff ff       	.word	0xffff	; ????
 1fc:	ff ff       	.word	0xffff	; ????
 1fe:	ff ff       	.word	0xffff	; ????
 200:	ff ff       	.word	0xffff	; ????
 202:	ff ff       	.word	0xffff	; ????
 204:	ff ff       	.word	0xffff	; ????
 206:	ff ff       	.word	0xffff	; ????
 208:	ff ff       	.word	0xffff	; ????
 20a:	ff ff       	.word	0xffff	; ????
 20c:	ff ff       	.word	0xffff	; ????
 20e:	ff ff       	.word	0xffff	; ????
 210:	ff ff       	.word	0xffff	; ????
 212:	ff ff       	.word	0xffff	; ????
 214:	ff ff       	.word	0xffff	; ????
 216:	ff ff       	.word	0xffff	; ????
 218:	ff ff       	.word	0xffff	; ????
 21a:	ff ff       	.word	0xffff	; ????
 21c:	ff ff       	.word	0xffff	; ????
 21e:	ff ff       	.word	0xffff	; ????
 220:	ff ff       	.word	0xffff	; ????
 222:	ff ff       	.word	0xffff	; ????
 224:	ff ff       	.word	0xffff	; ????
 226:	ff ff       	.word	0xffff	; ????
 228:	ff ff       	.word	0xffff	; ????
 22a:	ff ff       	.word	0xffff	; ????
 22c:	ff ff       	.word	0xffff	; ????
 22e:	ff ff       	.word	0xffff	; ????
 230:	ff ff       	.word	0xffff	; ????
 232:	ff ff       	.word	0xffff	; ????
 234:	ff ff       	.word	0xffff	; ????
 236:	ff ff       	.word	0xffff	; ????
 238:	ff ff       	.word	0xffff	; ????
 23a:	ff ff       	.word	0xffff	; ????
 23c:	ff ff       	.word	0xffff	; ????
 23e:	ff ff       	.word	0xffff	; ????
 240:	ff ff       	.word	0xffff	; ????
 242:	ff ff       	.word	0xffff	; ????
 244:	ff ff       	.word	0xffff	; ????
 246:	ff ff       	.word	0xffff	; ????
 248:	ff ff       	.word	0xffff	; ????
 24a:	ff ff       	.word	0xffff	; ????
 24c:	ff ff       	.word	0xffff	; ????
 24e:	ff ff       	.word	0xffff	; ????
 250:	ff ff       	.word	0xffff	; ????
 252:	ff ff       	.word	0xffff	; ????
 254:	ff ff       	.word	0xffff	; ????
 256:	ff ff       	.word	0xffff	; ????
 258:	ff ff       	.word	0xffff	; ????
 25a:	ff ff       	.word	0xffff	; ????
 25c:	ff ff       	.word	0xffff	; ????
 25e:	ff ff       	.word	0xffff	; ????
 260:	ff ff       	.word	0xffff	; ????
 262:	ff ff       	.word	0xffff	; ????
 264:	ff ff       	.word	0xffff	; ????
 266:	ff ff       	.word	0xffff	; ????
 268:	ff ff       	.word	0xffff	; ????
 26a:	ff ff       	.word	0xffff	; ????
 26c:	ff ff       	.word	0xffff	; ????
 26e:	ff ff       	.word	0xffff	; ????
 270:	ff ff       	.word	0xffff	; ????
 272:	ff ff       	.word	0xffff	; ????
 274:	ff ff       	.word	0xffff	; ????
 276:	ff ff       	.word	0xffff	; ????
 278:	ff ff       	.word	0xffff	; ????
 27a:	ff ff       	.word	0xffff	; ????
 27c:	ff ff       	.word	0xffff	; ????
 27e:	ff ff       	.word	0xffff	; ????
 280:	ff ff       	.word	0xffff	; ????
 282:	ff ff       	.word	0xffff	; ????
 284:	ff ff       	.word	0xffff	; ????
 286:	ff ff       	.word	0xffff	; ????
 288:	ff ff       	.word	0xffff	; ????
 28a:	ff ff       	.word	0xffff	; ????
 28c:	ff ff       	.word	0xffff	; ????
 28e:	ff ff       	.word	0xffff	; ????
 290:	ff ff       	.word	0xffff	; ????
 292:	ff ff       	.word	0xffff	; ????
 294:	ff ff       	.word	0xffff	; ????
 296:	ff ff       	.word	0xffff	; ????
 298:	ff ff       	.word	0xffff	; ????
 29a:	ff ff       	.word	0xffff	; ????
 29c:	ff ff       	.word	0xffff	; ????
 29e:	ff ff       	.word	0xffff	; ????
 2a0:	ff ff       	.word	0xffff	; ????
 2a2:	ff ff       	.word	0xffff	; ????
 2a4:	ff ff       	.word	0xffff	; ????
 2a6:	ff ff       	.word	0xffff	; ????
 2a8:	ff ff       	.word	0xffff	; ????
 2aa:	ff ff       	.word	0xffff	; ????
 2ac:	ff ff       	.word	0xffff	; ????
 2ae:	ff ff       	.word	0xffff	; ????
 2b0:	ff ff       	.word	0xffff	; ????
 2b2:	ff ff       	.word	0xffff	; ????
 2b4:	ff ff       	.word	0xffff	; ????
 2b6:	ff ff       	.word	0xffff	; ????
 2b8:	ff ff       	.word	0xffff	; ????
 2ba:	ff ff       	.word	0xffff	; ????
 2bc:	ff ff       	.word	0xffff	; ????
 2be:	ff ff       	.word	0xffff	; ????
 2c0:	ff ff       	.word	0xffff	; ????
 2c2:	ff ff       	.word	0xffff	; ????
 2c4:	ff ff       	.word	0xffff	; ????
 2c6:	ff ff       	.word	0xffff	; ????
 2c8:	ff ff       	.word	0xffff	; ????
 2ca:	ff ff       	.word	0xffff	; ????
 2cc:	ff ff       	.word	0xffff	; ????
 2ce:	ff ff       	.word	0xffff	; ????
 2d0:	ff ff       	.word	0xffff	; ????
 2d2:	ff ff       	.word	0xffff	; ????
 2d4:	ff ff       	.word	0xffff	; ????
 2d6:	ff ff       	.word	0xffff	; ????
 2d8:	ff ff       	.word	0xffff	; ????
 2da:	ff ff       	.word	0xffff	; ????
 2dc:	ff ff       	.word	0xffff	; ????
 2de:	ff ff       	.word	0xffff	; ????
 2e0:	ff ff       	.word	0xffff	; ????
 2e2:	ff ff       	.word	0xffff	; ????
 2e4:	ff ff       	.word	0xffff	; ????
 2e6:	ff ff       	.word	0xffff	; ????
 2e8:	ff ff       	.word	0xffff	; ????
 2ea:	ff ff       	.word	0xffff	; ????
 2ec:	ff ff       	.word	0xffff	; ????
 2ee:	ff ff       	.word	0xffff	; ????
 2f0:	ff ff       	.word	0xffff	; ????
 2f2:	ff ff       	.word	0xffff	; ????
 2f4:	ff ff       	.word	0xffff	; ????
 2f6:	ff ff       	.word	0xffff	; ????
 2f8:	ff ff       	.word	0xffff	; ????
 2fa:	ff ff       	.word	0xffff	; ????
 2fc:	ff ff       	.word	0xffff	; ????
 2fe:	ff ff       	.word	0xffff	; ????
 300:	ff ff       	.word	0xffff	; ????
 302:	ff ff       	.word	0xffff	; ????
 304:	ff ff       	.word	0xffff	; ????
 306:	ff ff       	.word	0xffff	; ????
 308:	ff ff       	.word	0xffff	; ????
 30a:	ff ff       	.word	0xffff	; ????
 30c:	ff ff       	.word	0xffff	; ????
 30e:	ff ff       	.word	0xffff	; ????
 310:	ff ff       	.word	0xffff	; ????
 312:	ff ff       	.word	0xffff	; ????
 314:	ff ff       	.word	0xffff	; ????
 316:	ff ff       	.word	0xffff	; ????
 318:	ff ff       	.word	0xffff	; ????
 31a:	ff ff       	.word	0xffff	; ????
 31c:	ff ff       	.word	0xffff	; ????
 31e:	ff ff       	.word	0xffff	; ????
 320:	ff ff       	.word	0xffff	; ????
 322:	ff ff       	.word	0xffff	; ????
 324:	ff ff       	.word	0xffff	; ????
 326:	ff ff       	.word	0xffff	; ????
 328:	ff ff       	.word	0xffff	; ????
 32a:	ff ff       	.word	0xffff	; ????
 32c:	ff ff       	.word	0xffff	; ????
 32e:	ff ff       	.word	0xffff	; ????
 330:	ff ff       	.word	0xffff	; ????
 332:	ff ff       	.word	0xffff	; ????
 334:	ff ff       	.word	0xffff	; ????
 336:	ff ff       	.word	0xffff	; ????
 338:	ff ff       	.word	0xffff	; ????
 33a:	ff ff       	.word	0xffff	; ????
 33c:	ff ff       	.word	0xffff	; ????
 33e:	ff ff       	.word	0xffff	; ????
 340:	ff ff       	.word	0xffff	; ????
 342:	ff ff       	.word	0xffff	; ????
 344:	ff ff       	.word	0xffff	; ????
 346:	ff ff       	.word	0xffff	; ????
 348:	ff ff       	.word	0xffff	; ????
 34a:	ff ff       	.word	0xffff	; ????
 34c:	ff ff       	.word	0xffff	; ????
 34e:	ff ff       	.word	0xffff	; ????
 350:	ff ff       	.word	0xffff	; ????
 352:	ff ff       	.word	0xffff	; ????
 354:	ff ff       	.word	0xffff	; ????
 356:	ff ff       	.word	0xffff	; ????
 358:	ff ff       	.word	0xffff	; ????
 35a:	ff ff       	.word	0xffff	; ????
 35c:	ff ff       	.word	0xffff	; ????
 35e:	ff ff       	.word	0xffff	; ????
 360:	ff ff       	.word	0xffff	; ????
 362:	ff ff       	.word	0xffff	; ????
 364:	ff ff       	.word	0xffff	; ????
 366:	ff ff       	.word	0xffff	; ????
 368:	ff ff       	.word	0xffff	; ????
 36a:	ff ff       	.word	0xffff	; ????
 36c:	ff ff       	.word	0xffff	; ????
 36e:	ff ff       	.word	0xffff	; ????
 370:	ff ff       	.word	0xffff	; ????
 372:	ff ff       	.word	0xffff	; ????
 374:	ff ff       	.word	0xffff	; ????
 376:	ff ff       	.word	0xffff	; ????
 378:	ff ff       	.word	0xffff	; ????
 37a:	ff ff       	.word	0xffff	; ????
 37c:	ff ff       	.word	0xffff	; ????
 37e:	ff ff       	.word	0xffff	; ????
 380:	ff ff       	.word	0xffff	; ????
 382:	ff ff       	.word	0xffff	; ????
 384:	ff ff       	.word	0xffff	; ????
 386:	ff ff       	.word	0xffff	; ????
 388:	ff ff       	.word	0xffff	; ????
 38a:	ff ff       	.word	0xffff	; ????
 38c:	ff ff       	.word	0xffff	; ????
 38e:	ff ff       	.word	0xffff	; ????
 390:	ff ff       	.word	0xffff	; ????
 392:	ff ff       	.word	0xffff	; ????
 394:	ff ff       	.word	0xffff	; ????
 396:	ff ff       	.word	0xffff	; ????
 398:	ff ff       	.word	0xffff	; ????
 39a:	ff ff       	.word	0xffff	; ????
 39c:	ff ff       	.word	0xffff	; ????
 39e:	ff ff       	.word	0xffff	; ????
 3a0:	ff ff       	.word	0xffff	; ????
 3a2:	ff ff       	.word	0xffff	; ????
 3a4:	ff ff       	.word	0xffff	; ????
 3a6:	ff ff       	.word	0xffff	; ????
 3a8:	ff ff       	.word	0xffff	; ????
 3aa:	ff ff       	.word	0xffff	; ????
 3ac:	ff ff       	.word	0xffff	; ????
 3ae:	ff ff       	.word	0xffff	; ????
 3b0:	ff ff       	.word	0xffff	; ????
 3b2:	ff ff       	.word	0xffff	; ????
 3b4:	ff ff       	.word	0xffff	; ????
 3b6:	ff ff       	.word	0xffff	; ????
 3b8:	ff ff       	.word	0xffff	; ????
 3ba:	ff ff       	.word	0xffff	; ????
 3bc:	ff ff       	.word	0xffff	; ????
 3be:	ff ff       	.word	0xffff	; ????
 3c0:	ff ff       	.word	0xffff	; ????
 3c2:	ff ff       	.word	0xffff	; ????
 3c4:	ff ff       	.word	0xffff	; ????
 3c6:	ff ff       	.word	0xffff	; ????
 3c8:	ff ff       	.word	0xffff	; ????
 3ca:	ff ff       	.word	0xffff	; ????
 3cc:	ff ff       	.word	0xffff	; ????
 3ce:	ff ff       	.word	0xffff	; ????
 3d0:	ff ff       	.word	0xffff	; ????
 3d2:	ff ff       	.word	0xffff	; ????
 3d4:	ff ff       	.word	0xffff	; ????
 3d6:	ff ff       	.word	0xffff	; ????
 3d8:	ff ff       	.word	0xffff	; ????
 3da:	ff ff       	.word	0xffff	; ????
 3dc:	ff ff       	.word	0xffff	; ????
 3de:	ff ff       	.word	0xffff	; ????
 3e0:	ff ff       	.word	0xffff	; ????
 3e2:	ff ff       	.word	0xffff	; ????
 3e4:	ff ff       	.word	0xffff	; ????
 3e6:	ff ff       	.word	0xffff	; ????
 3e8:	ff ff       	.word	0xffff	; ????
 3ea:	ff ff       	.word	0xffff	; ????
 3ec:	ff ff       	.word	0xffff	; ????
 3ee:	ff ff       	.word	0xffff	; ????
 3f0:	ff ff       	.word	0xffff	; ????
 3f2:	ff ff       	.word	0xffff	; ????
 3f4:	ff ff       	.word	0xffff	; ????
 3f6:	ff ff       	.word	0xffff	; ????
 3f8:	ff ff       	.word	0xffff	; ????
 3fa:	ff ff       	.word	0xffff	; ????
 3fc:	ff ff       	.word	0xffff	; ????
 3fe:	ff ff       	.word	0xffff	; ????

00000400 <__bad_interrupt>:
 400:	0c 94 a0 07 	jmp	0xf40	; 0xf40 <__vectors>

00000404 <main>:
 404:	cf 93       	push	r28
 406:	df 93       	push	r29
 408:	cd b7       	in	r28, 0x3d	; 61
 40a:	de b7       	in	r29, 0x3e	; 62
 40c:	a7 97       	sbiw	r28, 0x27	; 39
 40e:	0f b6       	in	r0, 0x3f	; 63
 410:	f8 94       	cli
 412:	de bf       	out	0x3e, r29	; 62
 414:	0f be       	out	0x3f, r0	; 63
 416:	cd bf       	out	0x3d, r28	; 61
 418:	2e e0       	ldi	r18, 0x0E	; 14
 41a:	ce 01       	movw	r24, r28
 41c:	01 96       	adiw	r24, 0x01	; 1
 41e:	fc 01       	movw	r30, r24
 420:	32 2f       	mov	r19, r18
 422:	11 92       	st	Z+, r1
 424:	3a 95       	dec	r19
 426:	e9 f7       	brne	.-6      	; 0x422 <main+0x1e>
 428:	82 e0       	ldi	r24, 0x02	; 2
 42a:	8c 83       	std	Y+4, r24	; 0x04
 42c:	89 e9       	ldi	r24, 0x99	; 153
 42e:	92 e0       	ldi	r25, 0x02	; 2
 430:	9a 87       	std	Y+10, r25	; 0x0a
 432:	89 87       	std	Y+9, r24	; 0x09
 434:	2e e0       	ldi	r18, 0x0E	; 14
 436:	ce 01       	movw	r24, r28
 438:	0f 96       	adiw	r24, 0x0f	; 15
 43a:	fc 01       	movw	r30, r24
 43c:	32 2f       	mov	r19, r18
 43e:	11 92       	st	Z+, r1
 440:	3a 95       	dec	r19
 442:	e9 f7       	brne	.-6      	; 0x43e <main+0x3a>
 444:	81 e0       	ldi	r24, 0x01	; 1
 446:	8a 8b       	std	Y+18, r24	; 0x12
 448:	85 eb       	ldi	r24, 0xB5	; 181
 44a:	92 e0       	ldi	r25, 0x02	; 2
 44c:	9a 8f       	std	Y+26, r25	; 0x1a
 44e:	89 8f       	std	Y+25, r24	; 0x19
 450:	ce 01       	movw	r24, r28
 452:	01 96       	adiw	r24, 0x01	; 1
 454:	90 93 05 01 	sts	0x0105, r25	; 0x800105 <__bss_end+0x3>
 458:	80 93 04 01 	sts	0x0104, r24	; 0x800104 <__bss_end+0x2>
 45c:	ce 01       	movw	r24, r28
 45e:	01 96       	adiw	r24, 0x01	; 1
 460:	90 93 07 01 	sts	0x0107, r25	; 0x800107 <__bss_end+0x5>
 464:	80 93 06 01 	sts	0x0106, r24	; 0x800106 <__bss_end+0x4>
 468:	ce 01       	movw	r24, r28
 46a:	0f 96       	adiw	r24, 0x0f	; 15
 46c:	90 93 03 01 	sts	0x0103, r25	; 0x800103 <__bss_end+0x1>
 470:	80 93 02 01 	sts	0x0102, r24	; 0x800102 <__bss_end>
 474:	ce 01       	movw	r24, r28
 476:	4d 96       	adiw	r24, 0x1d	; 29
 478:	23 e5       	ldi	r18, 0x53	; 83
 47a:	39 e5       	ldi	r19, 0x59	; 89
 47c:	fc 01       	movw	r30, r24
 47e:	31 83       	std	Z+1, r19	; 0x01
 480:	20 83       	st	Z, r18
 482:	23 e5       	ldi	r18, 0x53	; 83
 484:	30 e0       	ldi	r19, 0x00	; 0
 486:	fc 01       	movw	r30, r24
 488:	33 83       	std	Z+3, r19	; 0x03
 48a:	22 83       	std	Z+2, r18	; 0x02
 48c:	0e 94 6d 02 	call	0x4da	; 0x4da <__usart_init>
 490:	88 e2       	ldi	r24, 0x28	; 40
 492:	9b e2       	ldi	r25, 0x2B	; 43
 494:	89 2f       	mov	r24, r25
 496:	8f 93       	push	r24
 498:	88 e2       	ldi	r24, 0x28	; 40
 49a:	9b e2       	ldi	r25, 0x2B	; 43
 49c:	8f 93       	push	r24
 49e:	0e 94 ec 08 	call	0x11d8	; 0x11d8 <printf_P>
 4a2:	0f 90       	pop	r0
 4a4:	0f 90       	pop	r0
 4a6:	8a e3       	ldi	r24, 0x3A	; 58
 4a8:	9b e2       	ldi	r25, 0x2B	; 43
 4aa:	89 2f       	mov	r24, r25
 4ac:	8f 93       	push	r24
 4ae:	8a e3       	ldi	r24, 0x3A	; 58
 4b0:	9b e2       	ldi	r25, 0x2B	; 43
 4b2:	8f 93       	push	r24
 4b4:	0e 94 ec 08 	call	0x11d8	; 0x11d8 <printf_P>
 4b8:	0f 90       	pop	r0
 4ba:	0f 90       	pop	r0
 4bc:	ce 01       	movw	r24, r28
 4be:	4d 96       	adiw	r24, 0x1d	; 29
 4c0:	0e 94 14 14 	call	0x2828	; 0x2828 <mshell>
 4c4:	80 e0       	ldi	r24, 0x00	; 0
 4c6:	90 e0       	ldi	r25, 0x00	; 0
 4c8:	a7 96       	adiw	r28, 0x27	; 39
 4ca:	0f b6       	in	r0, 0x3f	; 63
 4cc:	f8 94       	cli
 4ce:	de bf       	out	0x3e, r29	; 62
 4d0:	0f be       	out	0x3f, r0	; 63
 4d2:	cd bf       	out	0x3d, r28	; 61
 4d4:	df 91       	pop	r29
 4d6:	cf 91       	pop	r28
 4d8:	08 95       	ret

000004da <__usart_init>:
 4da:	cf 93       	push	r28
 4dc:	df 93       	push	r29
 4de:	00 d0       	rcall	.+0      	; 0x4e0 <__usart_init+0x6>
 4e0:	00 d0       	rcall	.+0      	; 0x4e2 <__usart_init+0x8>
 4e2:	cd b7       	in	r28, 0x3d	; 61
 4e4:	de b7       	in	r29, 0x3e	; 62
 4e6:	87 e6       	ldi	r24, 0x67	; 103
 4e8:	90 e0       	ldi	r25, 0x00	; 0
 4ea:	a0 e0       	ldi	r26, 0x00	; 0
 4ec:	b0 e0       	ldi	r27, 0x00	; 0
 4ee:	89 83       	std	Y+1, r24	; 0x01
 4f0:	9a 83       	std	Y+2, r25	; 0x02
 4f2:	ab 83       	std	Y+3, r26	; 0x03
 4f4:	bc 83       	std	Y+4, r27	; 0x04
 4f6:	89 81       	ldd	r24, Y+1	; 0x01
 4f8:	9a 81       	ldd	r25, Y+2	; 0x02
 4fa:	ab 81       	ldd	r26, Y+3	; 0x03
 4fc:	bc 81       	ldd	r27, Y+4	; 0x04
 4fe:	89 2f       	mov	r24, r25
 500:	9a 2f       	mov	r25, r26
 502:	ab 2f       	mov	r26, r27
 504:	bb 27       	eor	r27, r27
 506:	25 ec       	ldi	r18, 0xC5	; 197
 508:	30 e0       	ldi	r19, 0x00	; 0
 50a:	f9 01       	movw	r30, r18
 50c:	80 83       	st	Z, r24
 50e:	84 ec       	ldi	r24, 0xC4	; 196
 510:	90 e0       	ldi	r25, 0x00	; 0
 512:	29 81       	ldd	r18, Y+1	; 0x01
 514:	fc 01       	movw	r30, r24
 516:	20 83       	st	Z, r18
 518:	81 ec       	ldi	r24, 0xC1	; 193
 51a:	90 e0       	ldi	r25, 0x00	; 0
 51c:	28 e1       	ldi	r18, 0x18	; 24
 51e:	fc 01       	movw	r30, r24
 520:	20 83       	st	Z, r18
 522:	00 00       	nop
 524:	0f 90       	pop	r0
 526:	0f 90       	pop	r0
 528:	0f 90       	pop	r0
 52a:	0f 90       	pop	r0
 52c:	df 91       	pop	r29
 52e:	cf 91       	pop	r28
 530:	08 95       	ret

00000532 <__usart_send_char>:
 532:	cf 93       	push	r28
 534:	df 93       	push	r29
 536:	1f 92       	push	r1
 538:	cd b7       	in	r28, 0x3d	; 61
 53a:	de b7       	in	r29, 0x3e	; 62
 53c:	89 83       	std	Y+1, r24	; 0x01
 53e:	00 00       	nop
 540:	80 ec       	ldi	r24, 0xC0	; 192
 542:	90 e0       	ldi	r25, 0x00	; 0
 544:	fc 01       	movw	r30, r24
 546:	80 81       	ld	r24, Z
 548:	88 2f       	mov	r24, r24
 54a:	90 e0       	ldi	r25, 0x00	; 0
 54c:	80 72       	andi	r24, 0x20	; 32
 54e:	99 27       	eor	r25, r25
 550:	89 2b       	or	r24, r25
 552:	b1 f3       	breq	.-20     	; 0x540 <__usart_send_char+0xe>
 554:	86 ec       	ldi	r24, 0xC6	; 198
 556:	90 e0       	ldi	r25, 0x00	; 0
 558:	29 81       	ldd	r18, Y+1	; 0x01
 55a:	fc 01       	movw	r30, r24
 55c:	20 83       	st	Z, r18
 55e:	80 e0       	ldi	r24, 0x00	; 0
 560:	90 e0       	ldi	r25, 0x00	; 0
 562:	0f 90       	pop	r0
 564:	df 91       	pop	r29
 566:	cf 91       	pop	r28
 568:	08 95       	ret

0000056a <__usart_receive_char>:
 56a:	cf 93       	push	r28
 56c:	df 93       	push	r29
 56e:	00 d0       	rcall	.+0      	; 0x570 <__usart_receive_char+0x6>
 570:	cd b7       	in	r28, 0x3d	; 61
 572:	de b7       	in	r29, 0x3e	; 62
 574:	9a 83       	std	Y+2, r25	; 0x02
 576:	89 83       	std	Y+1, r24	; 0x01
 578:	00 00       	nop
 57a:	80 ec       	ldi	r24, 0xC0	; 192
 57c:	90 e0       	ldi	r25, 0x00	; 0
 57e:	fc 01       	movw	r30, r24
 580:	80 81       	ld	r24, Z
 582:	88 23       	and	r24, r24
 584:	d4 f7       	brge	.-12     	; 0x57a <__usart_receive_char+0x10>
 586:	86 ec       	ldi	r24, 0xC6	; 198
 588:	90 e0       	ldi	r25, 0x00	; 0
 58a:	fc 01       	movw	r30, r24
 58c:	80 81       	ld	r24, Z
 58e:	88 2f       	mov	r24, r24
 590:	90 e0       	ldi	r25, 0x00	; 0
 592:	0f 90       	pop	r0
 594:	0f 90       	pop	r0
 596:	df 91       	pop	r29
 598:	cf 91       	pop	r28
 59a:	08 95       	ret

0000059c <__fcreate_E>:
 59c:	cf 93       	push	r28
 59e:	df 93       	push	r29
 5a0:	cd b7       	in	r28, 0x3d	; 61
 5a2:	de b7       	in	r29, 0x3e	; 62
 5a4:	6b 97       	sbiw	r28, 0x1b	; 27
 5a6:	0f b6       	in	r0, 0x3f	; 63
 5a8:	f8 94       	cli
 5aa:	de bf       	out	0x3e, r29	; 62
 5ac:	0f be       	out	0x3f, r0	; 63
 5ae:	cd bf       	out	0x3d, r28	; 61
 5b0:	98 8f       	std	Y+24, r25	; 0x18
 5b2:	8f 8b       	std	Y+23, r24	; 0x17
 5b4:	69 8f       	std	Y+25, r22	; 0x19
 5b6:	4a 8f       	std	Y+26, r20	; 0x1a
 5b8:	2b 8f       	std	Y+27, r18	; 0x1b
 5ba:	81 e0       	ldi	r24, 0x01	; 1
 5bc:	89 83       	std	Y+1, r24	; 0x01
 5be:	1b 82       	std	Y+3, r1	; 0x03
 5c0:	1a 82       	std	Y+2, r1	; 0x02
 5c2:	1e 82       	std	Y+6, r1	; 0x06
 5c4:	1d 82       	std	Y+5, r1	; 0x05
 5c6:	8f ef       	ldi	r24, 0xFF	; 255
 5c8:	8c 83       	std	Y+4, r24	; 0x04
 5ca:	89 8d       	ldd	r24, Y+25	; 0x19
 5cc:	82 30       	cpi	r24, 0x02	; 2
 5ce:	81 f4       	brne	.+32     	; 0x5f0 <__fcreate_E+0x54>
 5d0:	8b 8d       	ldd	r24, Y+27	; 0x1b
 5d2:	88 23       	and	r24, r24
 5d4:	69 f0       	breq	.+26     	; 0x5f0 <__fcreate_E+0x54>
 5d6:	80 e5       	ldi	r24, 0x50	; 80
 5d8:	9b e2       	ldi	r25, 0x2B	; 43
 5da:	89 2f       	mov	r24, r25
 5dc:	8f 93       	push	r24
 5de:	80 e5       	ldi	r24, 0x50	; 80
 5e0:	9b e2       	ldi	r25, 0x2B	; 43
 5e2:	8f 93       	push	r24
 5e4:	0e 94 ec 08 	call	0x11d8	; 0x11d8 <printf_P>
 5e8:	0f 90       	pop	r0
 5ea:	0f 90       	pop	r0
 5ec:	80 e0       	ldi	r24, 0x00	; 0
 5ee:	70 c0       	rjmp	.+224    	; 0x6d0 <__fcreate_E+0x134>
 5f0:	8b 8d       	ldd	r24, Y+27	; 0x1b
 5f2:	85 36       	cpi	r24, 0x65	; 101
 5f4:	68 f0       	brcs	.+26     	; 0x610 <__fcreate_E+0x74>
 5f6:	87 e8       	ldi	r24, 0x87	; 135
 5f8:	9b e2       	ldi	r25, 0x2B	; 43
 5fa:	89 2f       	mov	r24, r25
 5fc:	8f 93       	push	r24
 5fe:	87 e8       	ldi	r24, 0x87	; 135
 600:	9b e2       	ldi	r25, 0x2B	; 43
 602:	8f 93       	push	r24
 604:	0e 94 ec 08 	call	0x11d8	; 0x11d8 <printf_P>
 608:	0f 90       	pop	r0
 60a:	0f 90       	pop	r0
 60c:	80 e0       	ldi	r24, 0x00	; 0
 60e:	60 c0       	rjmp	.+192    	; 0x6d0 <__fcreate_E+0x134>
 610:	1b 82       	std	Y+3, r1	; 0x03
 612:	1a 82       	std	Y+2, r1	; 0x02
 614:	0e c0       	rjmp	.+28     	; 0x632 <__fcreate_E+0x96>
 616:	8a 81       	ldd	r24, Y+2	; 0x02
 618:	9b 81       	ldd	r25, Y+3	; 0x03
 61a:	02 96       	adiw	r24, 0x02	; 2
 61c:	0e 94 73 0e 	call	0x1ce6	; 0x1ce6 <eeprom_read_byte>
 620:	8c 83       	std	Y+4, r24	; 0x04
 622:	8c 81       	ldd	r24, Y+4	; 0x04
 624:	88 23       	and	r24, r24
 626:	59 f0       	breq	.+22     	; 0x63e <__fcreate_E+0xa2>
 628:	8a 81       	ldd	r24, Y+2	; 0x02
 62a:	9b 81       	ldd	r25, Y+3	; 0x03
 62c:	40 96       	adiw	r24, 0x10	; 16
 62e:	9b 83       	std	Y+3, r25	; 0x03
 630:	8a 83       	std	Y+2, r24	; 0x02
 632:	8a 81       	ldd	r24, Y+2	; 0x02
 634:	9b 81       	ldd	r25, Y+3	; 0x03
 636:	81 15       	cp	r24, r1
 638:	94 40       	sbci	r25, 0x04	; 4
 63a:	68 f3       	brcs	.-38     	; 0x616 <__fcreate_E+0x7a>
 63c:	01 c0       	rjmp	.+2      	; 0x640 <__fcreate_E+0xa4>
 63e:	00 00       	nop
 640:	8c 81       	ldd	r24, Y+4	; 0x04
 642:	88 23       	and	r24, r24
 644:	11 f0       	breq	.+4      	; 0x64a <__fcreate_E+0xae>
 646:	80 e0       	ldi	r24, 0x00	; 0
 648:	43 c0       	rjmp	.+134    	; 0x6d0 <__fcreate_E+0x134>
 64a:	8a 81       	ldd	r24, Y+2	; 0x02
 64c:	9b 81       	ldd	r25, Y+3	; 0x03
 64e:	9e 83       	std	Y+6, r25	; 0x06
 650:	8d 83       	std	Y+5, r24	; 0x05
 652:	1b 82       	std	Y+3, r1	; 0x03
 654:	1a 82       	std	Y+2, r1	; 0x02
 656:	8a 81       	ldd	r24, Y+2	; 0x02
 658:	9b 81       	ldd	r25, Y+3	; 0x03
 65a:	02 96       	adiw	r24, 0x02	; 2
 65c:	0e 94 73 0e 	call	0x1ce6	; 0x1ce6 <eeprom_read_byte>
 660:	8c 83       	std	Y+4, r24	; 0x04
 662:	8a 81       	ldd	r24, Y+2	; 0x02
 664:	9b 81       	ldd	r25, Y+3	; 0x03
 666:	40 96       	adiw	r24, 0x10	; 16
 668:	9b 83       	std	Y+3, r25	; 0x03
 66a:	8a 83       	std	Y+2, r24	; 0x02
 66c:	9c 81       	ldd	r25, Y+4	; 0x04
 66e:	89 81       	ldd	r24, Y+1	; 0x01
 670:	98 17       	cp	r25, r24
 672:	29 f4       	brne	.+10     	; 0x67e <__fcreate_E+0xe2>
 674:	89 81       	ldd	r24, Y+1	; 0x01
 676:	8f 5f       	subi	r24, 0xFF	; 255
 678:	89 83       	std	Y+1, r24	; 0x01
 67a:	1b 82       	std	Y+3, r1	; 0x03
 67c:	1a 82       	std	Y+2, r1	; 0x02
 67e:	8a 81       	ldd	r24, Y+2	; 0x02
 680:	9b 81       	ldd	r25, Y+3	; 0x03
 682:	81 15       	cp	r24, r1
 684:	94 40       	sbci	r25, 0x04	; 4
 686:	20 f4       	brcc	.+8      	; 0x690 <__fcreate_E+0xf4>
 688:	89 81       	ldd	r24, Y+1	; 0x01
 68a:	85 36       	cpi	r24, 0x65	; 101
 68c:	20 f3       	brcs	.-56     	; 0x656 <__fcreate_E+0xba>
 68e:	01 c0       	rjmp	.+2      	; 0x692 <__fcreate_E+0xf6>
 690:	00 00       	nop
 692:	8d 81       	ldd	r24, Y+5	; 0x05
 694:	9e 81       	ldd	r25, Y+6	; 0x06
 696:	89 2f       	mov	r24, r25
 698:	99 27       	eor	r25, r25
 69a:	8f 83       	std	Y+7, r24	; 0x07
 69c:	89 8d       	ldd	r24, Y+25	; 0x19
 69e:	88 87       	std	Y+8, r24	; 0x08
 6a0:	89 81       	ldd	r24, Y+1	; 0x01
 6a2:	89 87       	std	Y+9, r24	; 0x09
 6a4:	8a 8d       	ldd	r24, Y+26	; 0x1a
 6a6:	8a 87       	std	Y+10, r24	; 0x0a
 6a8:	8b 8d       	ldd	r24, Y+27	; 0x1b
 6aa:	8b 87       	std	Y+11, r24	; 0x0b
 6ac:	2f 89       	ldd	r18, Y+23	; 0x17
 6ae:	38 8d       	ldd	r19, Y+24	; 0x18
 6b0:	ce 01       	movw	r24, r28
 6b2:	07 96       	adiw	r24, 0x07	; 7
 6b4:	05 96       	adiw	r24, 0x05	; 5
 6b6:	b9 01       	movw	r22, r18
 6b8:	0e 94 2a 08 	call	0x1054	; 0x1054 <strcpy_P>
 6bc:	2a 81       	ldd	r18, Y+2	; 0x02
 6be:	3b 81       	ldd	r19, Y+3	; 0x03
 6c0:	ce 01       	movw	r24, r28
 6c2:	07 96       	adiw	r24, 0x07	; 7
 6c4:	40 e1       	ldi	r20, 0x10	; 16
 6c6:	50 e0       	ldi	r21, 0x00	; 0
 6c8:	b9 01       	movw	r22, r18
 6ca:	0e 94 7b 0e 	call	0x1cf6	; 0x1cf6 <eeprom_write_block>
 6ce:	89 81       	ldd	r24, Y+1	; 0x01
 6d0:	6b 96       	adiw	r28, 0x1b	; 27
 6d2:	0f b6       	in	r0, 0x3f	; 63
 6d4:	f8 94       	cli
 6d6:	de bf       	out	0x3e, r29	; 62
 6d8:	0f be       	out	0x3f, r0	; 63
 6da:	cd bf       	out	0x3d, r28	; 61
 6dc:	df 91       	pop	r29
 6de:	cf 91       	pop	r28
 6e0:	08 95       	ret

000006e2 <__fstat_E>:
 6e2:	cf 93       	push	r28
 6e4:	df 93       	push	r29
 6e6:	cd b7       	in	r28, 0x3d	; 61
 6e8:	de b7       	in	r29, 0x3e	; 62
 6ea:	61 97       	sbiw	r28, 0x11	; 17
 6ec:	0f b6       	in	r0, 0x3f	; 63
 6ee:	f8 94       	cli
 6f0:	de bf       	out	0x3e, r29	; 62
 6f2:	0f be       	out	0x3f, r0	; 63
 6f4:	cd bf       	out	0x3d, r28	; 61
 6f6:	8f 87       	std	Y+15, r24	; 0x0f
 6f8:	79 8b       	std	Y+17, r23	; 0x11
 6fa:	68 8b       	std	Y+16, r22	; 0x10
 6fc:	80 e0       	ldi	r24, 0x00	; 0
 6fe:	98 e7       	ldi	r25, 0x78	; 120
 700:	9e 83       	std	Y+6, r25	; 0x06
 702:	8d 83       	std	Y+5, r24	; 0x05
 704:	1a 82       	std	Y+2, r1	; 0x02
 706:	19 82       	std	Y+1, r1	; 0x01
 708:	8f ef       	ldi	r24, 0xFF	; 255
 70a:	8b 83       	std	Y+3, r24	; 0x03
 70c:	88 89       	ldd	r24, Y+16	; 0x10
 70e:	99 89       	ldd	r25, Y+17	; 0x11
 710:	98 87       	std	Y+8, r25	; 0x08
 712:	8f 83       	std	Y+7, r24	; 0x07
 714:	88 89       	ldd	r24, Y+16	; 0x10
 716:	99 89       	ldd	r25, Y+17	; 0x11
 718:	89 2b       	or	r24, r25
 71a:	e1 f4       	brne	.+56     	; 0x754 <__fstat_E+0x72>
 71c:	8e ef       	ldi	r24, 0xFE	; 254
 71e:	9f ef       	ldi	r25, 0xFF	; 255
 720:	4d c0       	rjmp	.+154    	; 0x7bc <__fstat_E+0xda>
 722:	2d 81       	ldd	r18, Y+5	; 0x05
 724:	3e 81       	ldd	r19, Y+6	; 0x06
 726:	89 81       	ldd	r24, Y+1	; 0x01
 728:	9a 81       	ldd	r25, Y+2	; 0x02
 72a:	82 0f       	add	r24, r18
 72c:	93 1f       	adc	r25, r19
 72e:	02 96       	adiw	r24, 0x02	; 2
 730:	9a 87       	std	Y+10, r25	; 0x0a
 732:	89 87       	std	Y+9, r24	; 0x09
 734:	89 85       	ldd	r24, Y+9	; 0x09
 736:	9a 85       	ldd	r25, Y+10	; 0x0a
 738:	fc 01       	movw	r30, r24
 73a:	84 91       	lpm	r24, Z
 73c:	8b 87       	std	Y+11, r24	; 0x0b
 73e:	8b 85       	ldd	r24, Y+11	; 0x0b
 740:	8b 83       	std	Y+3, r24	; 0x03
 742:	9b 81       	ldd	r25, Y+3	; 0x03
 744:	8f 85       	ldd	r24, Y+15	; 0x0f
 746:	98 17       	cp	r25, r24
 748:	59 f0       	breq	.+22     	; 0x760 <__fstat_E+0x7e>
 74a:	89 81       	ldd	r24, Y+1	; 0x01
 74c:	9a 81       	ldd	r25, Y+2	; 0x02
 74e:	40 96       	adiw	r24, 0x10	; 16
 750:	9a 83       	std	Y+2, r25	; 0x02
 752:	89 83       	std	Y+1, r24	; 0x01
 754:	89 81       	ldd	r24, Y+1	; 0x01
 756:	9a 81       	ldd	r25, Y+2	; 0x02
 758:	81 15       	cp	r24, r1
 75a:	94 40       	sbci	r25, 0x04	; 4
 75c:	10 f3       	brcs	.-60     	; 0x722 <__fstat_E+0x40>
 75e:	01 c0       	rjmp	.+2      	; 0x762 <__fstat_E+0x80>
 760:	00 00       	nop
 762:	9b 81       	ldd	r25, Y+3	; 0x03
 764:	8f 85       	ldd	r24, Y+15	; 0x0f
 766:	98 17       	cp	r25, r24
 768:	19 f0       	breq	.+6      	; 0x770 <__fstat_E+0x8e>
 76a:	8f ef       	ldi	r24, 0xFF	; 255
 76c:	9f ef       	ldi	r25, 0xFF	; 255
 76e:	26 c0       	rjmp	.+76     	; 0x7bc <__fstat_E+0xda>
 770:	1c 82       	std	Y+4, r1	; 0x04
 772:	1f c0       	rjmp	.+62     	; 0x7b2 <__fstat_E+0xd0>
 774:	2d 81       	ldd	r18, Y+5	; 0x05
 776:	3e 81       	ldd	r19, Y+6	; 0x06
 778:	89 81       	ldd	r24, Y+1	; 0x01
 77a:	9a 81       	ldd	r25, Y+2	; 0x02
 77c:	28 0f       	add	r18, r24
 77e:	39 1f       	adc	r19, r25
 780:	8c 81       	ldd	r24, Y+4	; 0x04
 782:	88 2f       	mov	r24, r24
 784:	90 e0       	ldi	r25, 0x00	; 0
 786:	82 0f       	add	r24, r18
 788:	93 1f       	adc	r25, r19
 78a:	9d 87       	std	Y+13, r25	; 0x0d
 78c:	8c 87       	std	Y+12, r24	; 0x0c
 78e:	8c 85       	ldd	r24, Y+12	; 0x0c
 790:	9d 85       	ldd	r25, Y+13	; 0x0d
 792:	fc 01       	movw	r30, r24
 794:	84 91       	lpm	r24, Z
 796:	8e 87       	std	Y+14, r24	; 0x0e
 798:	4e 85       	ldd	r20, Y+14	; 0x0e
 79a:	8c 81       	ldd	r24, Y+4	; 0x04
 79c:	88 2f       	mov	r24, r24
 79e:	90 e0       	ldi	r25, 0x00	; 0
 7a0:	2f 81       	ldd	r18, Y+7	; 0x07
 7a2:	38 85       	ldd	r19, Y+8	; 0x08
 7a4:	82 0f       	add	r24, r18
 7a6:	93 1f       	adc	r25, r19
 7a8:	fc 01       	movw	r30, r24
 7aa:	40 83       	st	Z, r20
 7ac:	8c 81       	ldd	r24, Y+4	; 0x04
 7ae:	8f 5f       	subi	r24, 0xFF	; 255
 7b0:	8c 83       	std	Y+4, r24	; 0x04
 7b2:	8c 81       	ldd	r24, Y+4	; 0x04
 7b4:	80 31       	cpi	r24, 0x10	; 16
 7b6:	f0 f2       	brcs	.-68     	; 0x774 <__fstat_E+0x92>
 7b8:	80 e0       	ldi	r24, 0x00	; 0
 7ba:	90 e0       	ldi	r25, 0x00	; 0
 7bc:	61 96       	adiw	r28, 0x11	; 17
 7be:	0f b6       	in	r0, 0x3f	; 63
 7c0:	f8 94       	cli
 7c2:	de bf       	out	0x3e, r29	; 62
 7c4:	0f be       	out	0x3f, r0	; 63
 7c6:	cd bf       	out	0x3d, r28	; 61
 7c8:	df 91       	pop	r29
 7ca:	cf 91       	pop	r28
 7cc:	08 95       	ret

000007ce <__ffind_E>:
 7ce:	cf 93       	push	r28
 7d0:	df 93       	push	r29
 7d2:	cd b7       	in	r28, 0x3d	; 61
 7d4:	de b7       	in	r29, 0x3e	; 62
 7d6:	c0 59       	subi	r28, 0x90	; 144
 7d8:	d1 09       	sbc	r29, r1
 7da:	0f b6       	in	r0, 0x3f	; 63
 7dc:	f8 94       	cli
 7de:	de bf       	out	0x3e, r29	; 62
 7e0:	0f be       	out	0x3f, r0	; 63
 7e2:	cd bf       	out	0x3d, r28	; 61
 7e4:	9e 01       	movw	r18, r28
 7e6:	25 57       	subi	r18, 0x75	; 117
 7e8:	3f 4f       	sbci	r19, 0xFF	; 255
 7ea:	f9 01       	movw	r30, r18
 7ec:	91 83       	std	Z+1, r25	; 0x01
 7ee:	80 83       	st	Z, r24
 7f0:	ce 01       	movw	r24, r28
 7f2:	83 57       	subi	r24, 0x73	; 115
 7f4:	9f 4f       	sbci	r25, 0xFF	; 255
 7f6:	fc 01       	movw	r30, r24
 7f8:	71 83       	std	Z+1, r23	; 0x01
 7fa:	60 83       	st	Z, r22
 7fc:	ce 01       	movw	r24, r28
 7fe:	81 57       	subi	r24, 0x71	; 113
 800:	9f 4f       	sbci	r25, 0xFF	; 255
 802:	fc 01       	movw	r30, r24
 804:	51 83       	std	Z+1, r21	; 0x01
 806:	40 83       	st	Z, r20
 808:	80 e0       	ldi	r24, 0x00	; 0
 80a:	98 e7       	ldi	r25, 0x78	; 120
 80c:	9c 87       	std	Y+12, r25	; 0x0c
 80e:	8b 87       	std	Y+11, r24	; 0x0b
 810:	1a 82       	std	Y+2, r1	; 0x02
 812:	19 82       	std	Y+1, r1	; 0x01
 814:	ce 01       	movw	r24, r28
 816:	81 57       	subi	r24, 0x71	; 113
 818:	9f 4f       	sbci	r25, 0xFF	; 255
 81a:	fc 01       	movw	r30, r24
 81c:	80 81       	ld	r24, Z
 81e:	91 81       	ldd	r25, Z+1	; 0x01
 820:	9e 87       	std	Y+14, r25	; 0x0e
 822:	8d 87       	std	Y+13, r24	; 0x0d
 824:	1b 82       	std	Y+3, r1	; 0x03
 826:	1c 82       	std	Y+4, r1	; 0x04
 828:	1e 82       	std	Y+6, r1	; 0x06
 82a:	1d 82       	std	Y+5, r1	; 0x05
 82c:	ce 01       	movw	r24, r28
 82e:	87 57       	subi	r24, 0x77	; 119
 830:	9f 4f       	sbci	r25, 0xFF	; 255
 832:	2f e2       	ldi	r18, 0x2F	; 47
 834:	30 e0       	ldi	r19, 0x00	; 0
 836:	fc 01       	movw	r30, r24
 838:	31 83       	std	Z+1, r19	; 0x01
 83a:	20 83       	st	Z, r18
 83c:	18 86       	std	Y+8, r1	; 0x08
 83e:	1f 82       	std	Y+7, r1	; 0x07
 840:	8f ef       	ldi	r24, 0xFF	; 255
 842:	9f ef       	ldi	r25, 0xFF	; 255
 844:	9a 87       	std	Y+10, r25	; 0x0a
 846:	89 87       	std	Y+9, r24	; 0x09
 848:	ce 01       	movw	r24, r28
 84a:	83 57       	subi	r24, 0x73	; 115
 84c:	9f 4f       	sbci	r25, 0xFF	; 255
 84e:	fc 01       	movw	r30, r24
 850:	20 81       	ld	r18, Z
 852:	31 81       	ldd	r19, Z+1	; 0x01
 854:	ce 01       	movw	r24, r28
 856:	49 96       	adiw	r24, 0x19	; 25
 858:	b9 01       	movw	r22, r18
 85a:	0e 94 4a 08 	call	0x1094	; 0x1094 <strcpy>
 85e:	9e 01       	movw	r18, r28
 860:	27 57       	subi	r18, 0x77	; 119
 862:	3f 4f       	sbci	r19, 0xFF	; 255
 864:	ce 01       	movw	r24, r28
 866:	83 57       	subi	r24, 0x73	; 115
 868:	9f 4f       	sbci	r25, 0xFF	; 255
 86a:	fc 01       	movw	r30, r24
 86c:	80 81       	ld	r24, Z
 86e:	91 81       	ldd	r25, Z+1	; 0x01
 870:	b9 01       	movw	r22, r18
 872:	0e 94 41 08 	call	0x1082	; 0x1082 <strcmp>
 876:	89 2b       	or	r24, r25
 878:	19 f4       	brne	.+6      	; 0x880 <__DATA_REGION_LENGTH__+0x80>
 87a:	80 e0       	ldi	r24, 0x00	; 0
 87c:	90 e0       	ldi	r25, 0x00	; 0
 87e:	a8 c0       	rjmp	.+336    	; 0x9d0 <__stack+0xd1>
 880:	9e 01       	movw	r18, r28
 882:	27 57       	subi	r18, 0x77	; 119
 884:	3f 4f       	sbci	r19, 0xFF	; 255
 886:	ce 01       	movw	r24, r28
 888:	49 96       	adiw	r24, 0x19	; 25
 88a:	b9 01       	movw	r22, r18
 88c:	0e 94 31 08 	call	0x1062	; 0x1062 <strtok>
 890:	9e 83       	std	Y+6, r25	; 0x06
 892:	8d 83       	std	Y+5, r24	; 0x05
 894:	96 c0       	rjmp	.+300    	; 0x9c2 <__stack+0xc3>
 896:	1a 82       	std	Y+2, r1	; 0x02
 898:	19 82       	std	Y+1, r1	; 0x01
 89a:	1c 82       	std	Y+4, r1	; 0x04
 89c:	8d 81       	ldd	r24, Y+5	; 0x05
 89e:	9e 81       	ldd	r25, Y+6	; 0x06
 8a0:	fc 01       	movw	r30, r24
 8a2:	80 81       	ld	r24, Z
 8a4:	88 23       	and	r24, r24
 8a6:	09 f0       	breq	.+2      	; 0x8aa <__DATA_REGION_LENGTH__+0xaa>
 8a8:	74 c0       	rjmp	.+232    	; 0x992 <__stack+0x93>
 8aa:	ce 01       	movw	r24, r28
 8ac:	87 57       	subi	r24, 0x77	; 119
 8ae:	9f 4f       	sbci	r25, 0xFF	; 255
 8b0:	bc 01       	movw	r22, r24
 8b2:	80 e0       	ldi	r24, 0x00	; 0
 8b4:	90 e0       	ldi	r25, 0x00	; 0
 8b6:	0e 94 31 08 	call	0x1062	; 0x1062 <strtok>
 8ba:	9e 83       	std	Y+6, r25	; 0x06
 8bc:	8d 83       	std	Y+5, r24	; 0x05
 8be:	81 c0       	rjmp	.+258    	; 0x9c2 <__stack+0xc3>
 8c0:	2b 85       	ldd	r18, Y+11	; 0x0b
 8c2:	3c 85       	ldd	r19, Y+12	; 0x0c
 8c4:	89 81       	ldd	r24, Y+1	; 0x01
 8c6:	9a 81       	ldd	r25, Y+2	; 0x02
 8c8:	82 0f       	add	r24, r18
 8ca:	93 1f       	adc	r25, r19
 8cc:	03 96       	adiw	r24, 0x03	; 3
 8ce:	98 8b       	std	Y+16, r25	; 0x10
 8d0:	8f 87       	std	Y+15, r24	; 0x0f
 8d2:	8f 85       	ldd	r24, Y+15	; 0x0f
 8d4:	98 89       	ldd	r25, Y+16	; 0x10
 8d6:	fc 01       	movw	r30, r24
 8d8:	84 91       	lpm	r24, Z
 8da:	89 8b       	std	Y+17, r24	; 0x11
 8dc:	89 89       	ldd	r24, Y+17	; 0x11
 8de:	8a 8b       	std	Y+18, r24	; 0x12
 8e0:	18 86       	std	Y+8, r1	; 0x08
 8e2:	1f 82       	std	Y+7, r1	; 0x07
 8e4:	22 c0       	rjmp	.+68     	; 0x92a <__stack+0x2b>
 8e6:	2b 85       	ldd	r18, Y+11	; 0x0b
 8e8:	3c 85       	ldd	r19, Y+12	; 0x0c
 8ea:	89 81       	ldd	r24, Y+1	; 0x01
 8ec:	9a 81       	ldd	r25, Y+2	; 0x02
 8ee:	28 0f       	add	r18, r24
 8f0:	39 1f       	adc	r19, r25
 8f2:	8f 81       	ldd	r24, Y+7	; 0x07
 8f4:	98 85       	ldd	r25, Y+8	; 0x08
 8f6:	82 0f       	add	r24, r18
 8f8:	93 1f       	adc	r25, r19
 8fa:	05 96       	adiw	r24, 0x05	; 5
 8fc:	9f 8b       	std	Y+23, r25	; 0x17
 8fe:	8e 8b       	std	Y+22, r24	; 0x16
 900:	8e 89       	ldd	r24, Y+22	; 0x16
 902:	9f 89       	ldd	r25, Y+23	; 0x17
 904:	fc 01       	movw	r30, r24
 906:	84 91       	lpm	r24, Z
 908:	88 8f       	std	Y+24, r24	; 0x18
 90a:	88 8d       	ldd	r24, Y+24	; 0x18
 90c:	48 2f       	mov	r20, r24
 90e:	9e 01       	movw	r18, r28
 910:	23 58       	subi	r18, 0x83	; 131
 912:	3f 4f       	sbci	r19, 0xFF	; 255
 914:	8f 81       	ldd	r24, Y+7	; 0x07
 916:	98 85       	ldd	r25, Y+8	; 0x08
 918:	82 0f       	add	r24, r18
 91a:	93 1f       	adc	r25, r19
 91c:	fc 01       	movw	r30, r24
 91e:	40 83       	st	Z, r20
 920:	8f 81       	ldd	r24, Y+7	; 0x07
 922:	98 85       	ldd	r25, Y+8	; 0x08
 924:	01 96       	adiw	r24, 0x01	; 1
 926:	98 87       	std	Y+8, r25	; 0x08
 928:	8f 83       	std	Y+7, r24	; 0x07
 92a:	8f 81       	ldd	r24, Y+7	; 0x07
 92c:	98 85       	ldd	r25, Y+8	; 0x08
 92e:	0b 97       	sbiw	r24, 0x0b	; 11
 930:	d4 f2       	brlt	.-76     	; 0x8e6 <__DATA_REGION_LENGTH__+0xe6>
 932:	ce 01       	movw	r24, r28
 934:	83 58       	subi	r24, 0x83	; 131
 936:	9f 4f       	sbci	r25, 0xFF	; 255
 938:	fc 01       	movw	r30, r24
 93a:	13 86       	std	Z+11, r1	; 0x0b
 93c:	9e 01       	movw	r18, r28
 93e:	23 58       	subi	r18, 0x83	; 131
 940:	3f 4f       	sbci	r19, 0xFF	; 255
 942:	8d 81       	ldd	r24, Y+5	; 0x05
 944:	9e 81       	ldd	r25, Y+6	; 0x06
 946:	b9 01       	movw	r22, r18
 948:	0e 94 41 08 	call	0x1082	; 0x1082 <strcmp>
 94c:	89 2b       	or	r24, r25
 94e:	e1 f4       	brne	.+56     	; 0x988 <__stack+0x89>
 950:	9a 89       	ldd	r25, Y+18	; 0x12
 952:	8b 81       	ldd	r24, Y+3	; 0x03
 954:	98 17       	cp	r25, r24
 956:	c1 f4       	brne	.+48     	; 0x988 <__stack+0x89>
 958:	2b 85       	ldd	r18, Y+11	; 0x0b
 95a:	3c 85       	ldd	r19, Y+12	; 0x0c
 95c:	89 81       	ldd	r24, Y+1	; 0x01
 95e:	9a 81       	ldd	r25, Y+2	; 0x02
 960:	82 0f       	add	r24, r18
 962:	93 1f       	adc	r25, r19
 964:	02 96       	adiw	r24, 0x02	; 2
 966:	9c 8b       	std	Y+20, r25	; 0x14
 968:	8b 8b       	std	Y+19, r24	; 0x13
 96a:	8b 89       	ldd	r24, Y+19	; 0x13
 96c:	9c 89       	ldd	r25, Y+20	; 0x14
 96e:	fc 01       	movw	r30, r24
 970:	84 91       	lpm	r24, Z
 972:	8d 8b       	std	Y+21, r24	; 0x15
 974:	8d 89       	ldd	r24, Y+21	; 0x15
 976:	88 2f       	mov	r24, r24
 978:	90 e0       	ldi	r25, 0x00	; 0
 97a:	9a 87       	std	Y+10, r25	; 0x0a
 97c:	89 87       	std	Y+9, r24	; 0x09
 97e:	89 85       	ldd	r24, Y+9	; 0x09
 980:	8b 83       	std	Y+3, r24	; 0x03
 982:	81 e0       	ldi	r24, 0x01	; 1
 984:	8c 83       	std	Y+4, r24	; 0x04
 986:	0b c0       	rjmp	.+22     	; 0x99e <__stack+0x9f>
 988:	89 81       	ldd	r24, Y+1	; 0x01
 98a:	9a 81       	ldd	r25, Y+2	; 0x02
 98c:	40 96       	adiw	r24, 0x10	; 16
 98e:	9a 83       	std	Y+2, r25	; 0x02
 990:	89 83       	std	Y+1, r24	; 0x01
 992:	89 81       	ldd	r24, Y+1	; 0x01
 994:	9a 81       	ldd	r25, Y+2	; 0x02
 996:	81 15       	cp	r24, r1
 998:	94 40       	sbci	r25, 0x04	; 4
 99a:	08 f4       	brcc	.+2      	; 0x99e <__stack+0x9f>
 99c:	91 cf       	rjmp	.-222    	; 0x8c0 <__DATA_REGION_LENGTH__+0xc0>
 99e:	8c 81       	ldd	r24, Y+4	; 0x04
 9a0:	88 23       	and	r24, r24
 9a2:	29 f4       	brne	.+10     	; 0x9ae <__stack+0xaf>
 9a4:	8f ef       	ldi	r24, 0xFF	; 255
 9a6:	9f ef       	ldi	r25, 0xFF	; 255
 9a8:	9a 87       	std	Y+10, r25	; 0x0a
 9aa:	89 87       	std	Y+9, r24	; 0x09
 9ac:	0f c0       	rjmp	.+30     	; 0x9cc <__stack+0xcd>
 9ae:	ce 01       	movw	r24, r28
 9b0:	87 57       	subi	r24, 0x77	; 119
 9b2:	9f 4f       	sbci	r25, 0xFF	; 255
 9b4:	bc 01       	movw	r22, r24
 9b6:	80 e0       	ldi	r24, 0x00	; 0
 9b8:	90 e0       	ldi	r25, 0x00	; 0
 9ba:	0e 94 31 08 	call	0x1062	; 0x1062 <strtok>
 9be:	9e 83       	std	Y+6, r25	; 0x06
 9c0:	8d 83       	std	Y+5, r24	; 0x05
 9c2:	8d 81       	ldd	r24, Y+5	; 0x05
 9c4:	9e 81       	ldd	r25, Y+6	; 0x06
 9c6:	89 2b       	or	r24, r25
 9c8:	09 f0       	breq	.+2      	; 0x9cc <__stack+0xcd>
 9ca:	65 cf       	rjmp	.-310    	; 0x896 <__DATA_REGION_LENGTH__+0x96>
 9cc:	89 85       	ldd	r24, Y+9	; 0x09
 9ce:	9a 85       	ldd	r25, Y+10	; 0x0a
 9d0:	c0 57       	subi	r28, 0x70	; 112
 9d2:	df 4f       	sbci	r29, 0xFF	; 255
 9d4:	0f b6       	in	r0, 0x3f	; 63
 9d6:	f8 94       	cli
 9d8:	de bf       	out	0x3e, r29	; 62
 9da:	0f be       	out	0x3f, r0	; 63
 9dc:	cd bf       	out	0x3d, r28	; 61
 9de:	df 91       	pop	r29
 9e0:	cf 91       	pop	r28
 9e2:	08 95       	ret

000009e4 <__flist_E>:
 9e4:	cf 93       	push	r28
 9e6:	df 93       	push	r29
 9e8:	cd b7       	in	r28, 0x3d	; 61
 9ea:	de b7       	in	r29, 0x3e	; 62
 9ec:	ed 97       	sbiw	r28, 0x3d	; 61
 9ee:	0f b6       	in	r0, 0x3f	; 63
 9f0:	f8 94       	cli
 9f2:	de bf       	out	0x3e, r29	; 62
 9f4:	0f be       	out	0x3f, r0	; 63
 9f6:	cd bf       	out	0x3d, r28	; 61
 9f8:	9d af       	std	Y+61, r25	; 0x3d
 9fa:	8c af       	std	Y+60, r24	; 0x3c
 9fc:	80 e0       	ldi	r24, 0x00	; 0
 9fe:	98 e7       	ldi	r25, 0x78	; 120
 a00:	98 87       	std	Y+8, r25	; 0x08
 a02:	8f 83       	std	Y+7, r24	; 0x07
 a04:	1a 82       	std	Y+2, r1	; 0x02
 a06:	19 82       	std	Y+1, r1	; 0x01
 a08:	82 e0       	ldi	r24, 0x02	; 2
 a0a:	90 e0       	ldi	r25, 0x00	; 0
 a0c:	9e 83       	std	Y+6, r25	; 0x06
 a0e:	8d 83       	std	Y+5, r24	; 0x05
 a10:	8c ad       	ldd	r24, Y+60	; 0x3c
 a12:	9d ad       	ldd	r25, Y+61	; 0x3d
 a14:	0e 94 51 08 	call	0x10a2	; 0x10a2 <strlen>
 a18:	fc 01       	movw	r30, r24
 a1a:	9e 01       	movw	r18, r28
 a1c:	20 5e       	subi	r18, 0xE0	; 224
 a1e:	3f 4f       	sbci	r19, 0xFF	; 255
 a20:	8c ad       	ldd	r24, Y+60	; 0x3c
 a22:	9d ad       	ldd	r25, Y+61	; 0x3d
 a24:	a9 01       	movw	r20, r18
 a26:	bc 01       	movw	r22, r24
 a28:	cf 01       	movw	r24, r30
 a2a:	0e 94 e7 03 	call	0x7ce	; 0x7ce <__ffind_E>
 a2e:	9a 87       	std	Y+10, r25	; 0x0a
 a30:	89 87       	std	Y+9, r24	; 0x09
 a32:	89 85       	ldd	r24, Y+9	; 0x09
 a34:	9a 85       	ldd	r25, Y+10	; 0x0a
 a36:	99 23       	and	r25, r25
 a38:	1c f4       	brge	.+6      	; 0xa40 <__flist_E+0x5c>
 a3a:	8f ef       	ldi	r24, 0xFF	; 255
 a3c:	9f ef       	ldi	r25, 0xFF	; 255
 a3e:	3e c1       	rjmp	.+636    	; 0xcbc <__flist_E+0x2d8>
 a40:	8c eb       	ldi	r24, 0xBC	; 188
 a42:	9b e2       	ldi	r25, 0x2B	; 43
 a44:	89 2f       	mov	r24, r25
 a46:	8f 93       	push	r24
 a48:	8c eb       	ldi	r24, 0xBC	; 188
 a4a:	9b e2       	ldi	r25, 0x2B	; 43
 a4c:	8f 93       	push	r24
 a4e:	0e 94 ec 08 	call	0x11d8	; 0x11d8 <printf_P>
 a52:	0f 90       	pop	r0
 a54:	0f 90       	pop	r0
 a56:	8d ec       	ldi	r24, 0xCD	; 205
 a58:	9b e2       	ldi	r25, 0x2B	; 43
 a5a:	89 2f       	mov	r24, r25
 a5c:	8f 93       	push	r24
 a5e:	8d ec       	ldi	r24, 0xCD	; 205
 a60:	9b e2       	ldi	r25, 0x2B	; 43
 a62:	8f 93       	push	r24
 a64:	0e 94 ec 08 	call	0x11d8	; 0x11d8 <printf_P>
 a68:	0f 90       	pop	r0
 a6a:	0f 90       	pop	r0
 a6c:	1f 92       	push	r1
 a6e:	1f 92       	push	r1
 a70:	88 ef       	ldi	r24, 0xF8	; 248
 a72:	9b e2       	ldi	r25, 0x2B	; 43
 a74:	89 2f       	mov	r24, r25
 a76:	8f 93       	push	r24
 a78:	88 ef       	ldi	r24, 0xF8	; 248
 a7a:	9b e2       	ldi	r25, 0x2B	; 43
 a7c:	8f 93       	push	r24
 a7e:	0e 94 ec 08 	call	0x11d8	; 0x11d8 <printf_P>
 a82:	0f 90       	pop	r0
 a84:	0f 90       	pop	r0
 a86:	0f 90       	pop	r0
 a88:	0f 90       	pop	r0
 a8a:	1f 92       	push	r1
 a8c:	1f 92       	push	r1
 a8e:	83 e0       	ldi	r24, 0x03	; 3
 a90:	9c e2       	ldi	r25, 0x2C	; 44
 a92:	89 2f       	mov	r24, r25
 a94:	8f 93       	push	r24
 a96:	83 e0       	ldi	r24, 0x03	; 3
 a98:	9c e2       	ldi	r25, 0x2C	; 44
 a9a:	8f 93       	push	r24
 a9c:	0e 94 ec 08 	call	0x11d8	; 0x11d8 <printf_P>
 aa0:	0f 90       	pop	r0
 aa2:	0f 90       	pop	r0
 aa4:	0f 90       	pop	r0
 aa6:	0f 90       	pop	r0
 aa8:	e5 c0       	rjmp	.+458    	; 0xc74 <__flist_E+0x290>
 aaa:	2f 81       	ldd	r18, Y+7	; 0x07
 aac:	38 85       	ldd	r19, Y+8	; 0x08
 aae:	89 81       	ldd	r24, Y+1	; 0x01
 ab0:	9a 81       	ldd	r25, Y+2	; 0x02
 ab2:	82 0f       	add	r24, r18
 ab4:	93 1f       	adc	r25, r19
 ab6:	03 96       	adiw	r24, 0x03	; 3
 ab8:	9c 87       	std	Y+12, r25	; 0x0c
 aba:	8b 87       	std	Y+11, r24	; 0x0b
 abc:	8b 85       	ldd	r24, Y+11	; 0x0b
 abe:	9c 85       	ldd	r25, Y+12	; 0x0c
 ac0:	fc 01       	movw	r30, r24
 ac2:	84 91       	lpm	r24, Z
 ac4:	8d 87       	std	Y+13, r24	; 0x0d
 ac6:	8d 85       	ldd	r24, Y+13	; 0x0d
 ac8:	88 2f       	mov	r24, r24
 aca:	90 e0       	ldi	r25, 0x00	; 0
 acc:	9f 87       	std	Y+15, r25	; 0x0f
 ace:	8e 87       	std	Y+14, r24	; 0x0e
 ad0:	2f 81       	ldd	r18, Y+7	; 0x07
 ad2:	38 85       	ldd	r19, Y+8	; 0x08
 ad4:	89 81       	ldd	r24, Y+1	; 0x01
 ad6:	9a 81       	ldd	r25, Y+2	; 0x02
 ad8:	82 0f       	add	r24, r18
 ada:	93 1f       	adc	r25, r19
 adc:	02 96       	adiw	r24, 0x02	; 2
 ade:	99 8b       	std	Y+17, r25	; 0x11
 ae0:	88 8b       	std	Y+16, r24	; 0x10
 ae2:	88 89       	ldd	r24, Y+16	; 0x10
 ae4:	99 89       	ldd	r25, Y+17	; 0x11
 ae6:	fc 01       	movw	r30, r24
 ae8:	84 91       	lpm	r24, Z
 aea:	8a 8b       	std	Y+18, r24	; 0x12
 aec:	8a 89       	ldd	r24, Y+18	; 0x12
 aee:	88 2f       	mov	r24, r24
 af0:	90 e0       	ldi	r25, 0x00	; 0
 af2:	9c 8b       	std	Y+20, r25	; 0x14
 af4:	8b 8b       	std	Y+19, r24	; 0x13
 af6:	2e 85       	ldd	r18, Y+14	; 0x0e
 af8:	3f 85       	ldd	r19, Y+15	; 0x0f
 afa:	89 85       	ldd	r24, Y+9	; 0x09
 afc:	9a 85       	ldd	r25, Y+10	; 0x0a
 afe:	28 17       	cp	r18, r24
 b00:	39 07       	cpc	r19, r25
 b02:	09 f0       	breq	.+2      	; 0xb06 <__flist_E+0x122>
 b04:	b2 c0       	rjmp	.+356    	; 0xc6a <__flist_E+0x286>
 b06:	2b 89       	ldd	r18, Y+19	; 0x13
 b08:	3c 89       	ldd	r19, Y+20	; 0x14
 b0a:	89 85       	ldd	r24, Y+9	; 0x09
 b0c:	9a 85       	ldd	r25, Y+10	; 0x0a
 b0e:	28 17       	cp	r18, r24
 b10:	39 07       	cpc	r19, r25
 b12:	09 f4       	brne	.+2      	; 0xb16 <__flist_E+0x132>
 b14:	aa c0       	rjmp	.+340    	; 0xc6a <__flist_E+0x286>
 b16:	8d 81       	ldd	r24, Y+5	; 0x05
 b18:	9e 81       	ldd	r25, Y+6	; 0x06
 b1a:	01 96       	adiw	r24, 0x01	; 1
 b1c:	9e 83       	std	Y+6, r25	; 0x06
 b1e:	8d 83       	std	Y+5, r24	; 0x05
 b20:	2f 81       	ldd	r18, Y+7	; 0x07
 b22:	38 85       	ldd	r19, Y+8	; 0x08
 b24:	89 81       	ldd	r24, Y+1	; 0x01
 b26:	9a 81       	ldd	r25, Y+2	; 0x02
 b28:	82 0f       	add	r24, r18
 b2a:	93 1f       	adc	r25, r19
 b2c:	04 96       	adiw	r24, 0x04	; 4
 b2e:	9e 8b       	std	Y+22, r25	; 0x16
 b30:	8d 8b       	std	Y+21, r24	; 0x15
 b32:	8d 89       	ldd	r24, Y+21	; 0x15
 b34:	9e 89       	ldd	r25, Y+22	; 0x16
 b36:	fc 01       	movw	r30, r24
 b38:	84 91       	lpm	r24, Z
 b3a:	8f 8b       	std	Y+23, r24	; 0x17
 b3c:	8f 89       	ldd	r24, Y+23	; 0x17
 b3e:	88 8f       	std	Y+24, r24	; 0x18
 b40:	2f 81       	ldd	r18, Y+7	; 0x07
 b42:	38 85       	ldd	r19, Y+8	; 0x08
 b44:	89 81       	ldd	r24, Y+1	; 0x01
 b46:	9a 81       	ldd	r25, Y+2	; 0x02
 b48:	82 0f       	add	r24, r18
 b4a:	93 1f       	adc	r25, r19
 b4c:	01 96       	adiw	r24, 0x01	; 1
 b4e:	9a 8f       	std	Y+26, r25	; 0x1a
 b50:	89 8f       	std	Y+25, r24	; 0x19
 b52:	89 8d       	ldd	r24, Y+25	; 0x19
 b54:	9a 8d       	ldd	r25, Y+26	; 0x1a
 b56:	fc 01       	movw	r30, r24
 b58:	84 91       	lpm	r24, Z
 b5a:	8b 8f       	std	Y+27, r24	; 0x1b
 b5c:	8b 8d       	ldd	r24, Y+27	; 0x1b
 b5e:	8c 8f       	std	Y+28, r24	; 0x1c
 b60:	1c 82       	std	Y+4, r1	; 0x04
 b62:	1b 82       	std	Y+3, r1	; 0x03
 b64:	22 c0       	rjmp	.+68     	; 0xbaa <__flist_E+0x1c6>
 b66:	2f 81       	ldd	r18, Y+7	; 0x07
 b68:	38 85       	ldd	r19, Y+8	; 0x08
 b6a:	89 81       	ldd	r24, Y+1	; 0x01
 b6c:	9a 81       	ldd	r25, Y+2	; 0x02
 b6e:	28 0f       	add	r18, r24
 b70:	39 1f       	adc	r19, r25
 b72:	8b 81       	ldd	r24, Y+3	; 0x03
 b74:	9c 81       	ldd	r25, Y+4	; 0x04
 b76:	82 0f       	add	r24, r18
 b78:	93 1f       	adc	r25, r19
 b7a:	05 96       	adiw	r24, 0x05	; 5
 b7c:	9e 8f       	std	Y+30, r25	; 0x1e
 b7e:	8d 8f       	std	Y+29, r24	; 0x1d
 b80:	8d 8d       	ldd	r24, Y+29	; 0x1d
 b82:	9e 8d       	ldd	r25, Y+30	; 0x1e
 b84:	fc 01       	movw	r30, r24
 b86:	84 91       	lpm	r24, Z
 b88:	8f 8f       	std	Y+31, r24	; 0x1f
 b8a:	8f 8d       	ldd	r24, Y+31	; 0x1f
 b8c:	48 2f       	mov	r20, r24
 b8e:	9e 01       	movw	r18, r28
 b90:	20 5d       	subi	r18, 0xD0	; 208
 b92:	3f 4f       	sbci	r19, 0xFF	; 255
 b94:	8b 81       	ldd	r24, Y+3	; 0x03
 b96:	9c 81       	ldd	r25, Y+4	; 0x04
 b98:	82 0f       	add	r24, r18
 b9a:	93 1f       	adc	r25, r19
 b9c:	fc 01       	movw	r30, r24
 b9e:	40 83       	st	Z, r20
 ba0:	8b 81       	ldd	r24, Y+3	; 0x03
 ba2:	9c 81       	ldd	r25, Y+4	; 0x04
 ba4:	01 96       	adiw	r24, 0x01	; 1
 ba6:	9c 83       	std	Y+4, r25	; 0x04
 ba8:	8b 83       	std	Y+3, r24	; 0x03
 baa:	8b 81       	ldd	r24, Y+3	; 0x03
 bac:	9c 81       	ldd	r25, Y+4	; 0x04
 bae:	0b 97       	sbiw	r24, 0x0b	; 11
 bb0:	d4 f2       	brlt	.-76     	; 0xb66 <__flist_E+0x182>
 bb2:	1b ae       	std	Y+59, r1	; 0x3b
 bb4:	8c 8d       	ldd	r24, Y+28	; 0x1c
 bb6:	88 2f       	mov	r24, r24
 bb8:	90 e0       	ldi	r25, 0x00	; 0
 bba:	81 30       	cpi	r24, 0x01	; 1
 bbc:	91 05       	cpc	r25, r1
 bbe:	89 f0       	breq	.+34     	; 0xbe2 <__flist_E+0x1fe>
 bc0:	82 30       	cpi	r24, 0x02	; 2
 bc2:	91 05       	cpc	r25, r1
 bc4:	d1 f0       	breq	.+52     	; 0xbfa <__flist_E+0x216>
 bc6:	89 2b       	or	r24, r25
 bc8:	21 f5       	brne	.+72     	; 0xc12 <__flist_E+0x22e>
 bca:	8f e0       	ldi	r24, 0x0F	; 15
 bcc:	9c e2       	ldi	r25, 0x2C	; 44
 bce:	89 2f       	mov	r24, r25
 bd0:	8f 93       	push	r24
 bd2:	8f e0       	ldi	r24, 0x0F	; 15
 bd4:	9c e2       	ldi	r25, 0x2C	; 44
 bd6:	8f 93       	push	r24
 bd8:	0e 94 ec 08 	call	0x11d8	; 0x11d8 <printf_P>
 bdc:	0f 90       	pop	r0
 bde:	0f 90       	pop	r0
 be0:	24 c0       	rjmp	.+72     	; 0xc2a <__flist_E+0x246>
 be2:	83 e1       	ldi	r24, 0x13	; 19
 be4:	9c e2       	ldi	r25, 0x2C	; 44
 be6:	89 2f       	mov	r24, r25
 be8:	8f 93       	push	r24
 bea:	83 e1       	ldi	r24, 0x13	; 19
 bec:	9c e2       	ldi	r25, 0x2C	; 44
 bee:	8f 93       	push	r24
 bf0:	0e 94 ec 08 	call	0x11d8	; 0x11d8 <printf_P>
 bf4:	0f 90       	pop	r0
 bf6:	0f 90       	pop	r0
 bf8:	18 c0       	rjmp	.+48     	; 0xc2a <__flist_E+0x246>
 bfa:	87 e1       	ldi	r24, 0x17	; 23
 bfc:	9c e2       	ldi	r25, 0x2C	; 44
 bfe:	89 2f       	mov	r24, r25
 c00:	8f 93       	push	r24
 c02:	87 e1       	ldi	r24, 0x17	; 23
 c04:	9c e2       	ldi	r25, 0x2C	; 44
 c06:	8f 93       	push	r24
 c08:	0e 94 ec 08 	call	0x11d8	; 0x11d8 <printf_P>
 c0c:	0f 90       	pop	r0
 c0e:	0f 90       	pop	r0
 c10:	0c c0       	rjmp	.+24     	; 0xc2a <__flist_E+0x246>
 c12:	8b e1       	ldi	r24, 0x1B	; 27
 c14:	9c e2       	ldi	r25, 0x2C	; 44
 c16:	89 2f       	mov	r24, r25
 c18:	8f 93       	push	r24
 c1a:	8b e1       	ldi	r24, 0x1B	; 27
 c1c:	9c e2       	ldi	r25, 0x2C	; 44
 c1e:	8f 93       	push	r24
 c20:	0e 94 ec 08 	call	0x11d8	; 0x11d8 <printf_P>
 c24:	0f 90       	pop	r0
 c26:	0f 90       	pop	r0
 c28:	00 00       	nop
 c2a:	88 8d       	ldd	r24, Y+24	; 0x18
 c2c:	88 2f       	mov	r24, r24
 c2e:	90 e0       	ldi	r25, 0x00	; 0
 c30:	96 95       	lsr	r25
 c32:	98 2f       	mov	r25, r24
 c34:	88 27       	eor	r24, r24
 c36:	97 95       	ror	r25
 c38:	87 95       	ror	r24
 c3a:	9e 01       	movw	r18, r28
 c3c:	20 5d       	subi	r18, 0xD0	; 208
 c3e:	3f 4f       	sbci	r19, 0xFF	; 255
 c40:	43 2f       	mov	r20, r19
 c42:	4f 93       	push	r20
 c44:	2f 93       	push	r18
 c46:	29 2f       	mov	r18, r25
 c48:	2f 93       	push	r18
 c4a:	8f 93       	push	r24
 c4c:	8f e1       	ldi	r24, 0x1F	; 31
 c4e:	9c e2       	ldi	r25, 0x2C	; 44
 c50:	89 2f       	mov	r24, r25
 c52:	8f 93       	push	r24
 c54:	8f e1       	ldi	r24, 0x1F	; 31
 c56:	9c e2       	ldi	r25, 0x2C	; 44
 c58:	8f 93       	push	r24
 c5a:	0e 94 ec 08 	call	0x11d8	; 0x11d8 <printf_P>
 c5e:	0f 90       	pop	r0
 c60:	0f 90       	pop	r0
 c62:	0f 90       	pop	r0
 c64:	0f 90       	pop	r0
 c66:	0f 90       	pop	r0
 c68:	0f 90       	pop	r0
 c6a:	89 81       	ldd	r24, Y+1	; 0x01
 c6c:	9a 81       	ldd	r25, Y+2	; 0x02
 c6e:	40 96       	adiw	r24, 0x10	; 16
 c70:	9a 83       	std	Y+2, r25	; 0x02
 c72:	89 83       	std	Y+1, r24	; 0x01
 c74:	89 81       	ldd	r24, Y+1	; 0x01
 c76:	9a 81       	ldd	r25, Y+2	; 0x02
 c78:	81 15       	cp	r24, r1
 c7a:	94 40       	sbci	r25, 0x04	; 4
 c7c:	08 f4       	brcc	.+2      	; 0xc80 <__flist_E+0x29c>
 c7e:	15 cf       	rjmp	.-470    	; 0xaaa <__flist_E+0xc6>
 c80:	8d ec       	ldi	r24, 0xCD	; 205
 c82:	9b e2       	ldi	r25, 0x2B	; 43
 c84:	89 2f       	mov	r24, r25
 c86:	8f 93       	push	r24
 c88:	8d ec       	ldi	r24, 0xCD	; 205
 c8a:	9b e2       	ldi	r25, 0x2B	; 43
 c8c:	8f 93       	push	r24
 c8e:	0e 94 ec 08 	call	0x11d8	; 0x11d8 <printf_P>
 c92:	0f 90       	pop	r0
 c94:	0f 90       	pop	r0
 c96:	8e 81       	ldd	r24, Y+6	; 0x06
 c98:	8f 93       	push	r24
 c9a:	8d 81       	ldd	r24, Y+5	; 0x05
 c9c:	8f 93       	push	r24
 c9e:	88 e2       	ldi	r24, 0x28	; 40
 ca0:	9c e2       	ldi	r25, 0x2C	; 44
 ca2:	89 2f       	mov	r24, r25
 ca4:	8f 93       	push	r24
 ca6:	88 e2       	ldi	r24, 0x28	; 40
 ca8:	9c e2       	ldi	r25, 0x2C	; 44
 caa:	8f 93       	push	r24
 cac:	0e 94 ec 08 	call	0x11d8	; 0x11d8 <printf_P>
 cb0:	0f 90       	pop	r0
 cb2:	0f 90       	pop	r0
 cb4:	0f 90       	pop	r0
 cb6:	0f 90       	pop	r0
 cb8:	80 e0       	ldi	r24, 0x00	; 0
 cba:	90 e0       	ldi	r25, 0x00	; 0
 cbc:	ed 96       	adiw	r28, 0x3d	; 61
 cbe:	0f b6       	in	r0, 0x3f	; 63
 cc0:	f8 94       	cli
 cc2:	de bf       	out	0x3e, r29	; 62
 cc4:	0f be       	out	0x3f, r0	; 63
 cc6:	cd bf       	out	0x3d, r28	; 61
 cc8:	df 91       	pop	r29
 cca:	cf 91       	pop	r28
 ccc:	08 95       	ret

00000cce <__call>:
 cce:	cf 93       	push	r28
 cd0:	df 93       	push	r29
 cd2:	cd b7       	in	r28, 0x3d	; 61
 cd4:	de b7       	in	r29, 0x3e	; 62
 cd6:	67 97       	sbiw	r28, 0x17	; 23
 cd8:	0f b6       	in	r0, 0x3f	; 63
 cda:	f8 94       	cli
 cdc:	de bf       	out	0x3e, r29	; 62
 cde:	0f be       	out	0x3f, r0	; 63
 ce0:	cd bf       	out	0x3d, r28	; 61
 ce2:	8f 8b       	std	Y+23, r24	; 0x17
 ce4:	1a 82       	std	Y+2, r1	; 0x02
 ce6:	19 82       	std	Y+1, r1	; 0x01
 ce8:	1c 82       	std	Y+4, r1	; 0x04
 cea:	1b 82       	std	Y+3, r1	; 0x03
 cec:	ce 01       	movw	r24, r28
 cee:	07 96       	adiw	r24, 0x07	; 7
 cf0:	bc 01       	movw	r22, r24
 cf2:	8f 89       	ldd	r24, Y+23	; 0x17
 cf4:	0e 94 71 03 	call	0x6e2	; 0x6e2 <__fstat_E>
 cf8:	9c 83       	std	Y+4, r25	; 0x04
 cfa:	8b 83       	std	Y+3, r24	; 0x03
 cfc:	8b 81       	ldd	r24, Y+3	; 0x03
 cfe:	9c 81       	ldd	r25, Y+4	; 0x04
 d00:	89 2b       	or	r24, r25
 d02:	81 f0       	breq	.+32     	; 0xd24 <__call+0x56>
 d04:	80 91 06 01 	lds	r24, 0x0106	; 0x800106 <__bss_end+0x4>
 d08:	90 91 07 01 	lds	r25, 0x0107	; 0x800107 <__bss_end+0x5>
 d0c:	9c 01       	movw	r18, r24
 d0e:	41 e2       	ldi	r20, 0x21	; 33
 d10:	50 e0       	ldi	r21, 0x00	; 0
 d12:	61 e0       	ldi	r22, 0x01	; 1
 d14:	70 e0       	ldi	r23, 0x00	; 0
 d16:	85 e3       	ldi	r24, 0x35	; 53
 d18:	9c e2       	ldi	r25, 0x2C	; 44
 d1a:	0e 94 bc 08 	call	0x1178	; 0x1178 <fwrite>
 d1e:	8f ef       	ldi	r24, 0xFF	; 255
 d20:	9f ef       	ldi	r25, 0xFF	; 255
 d22:	16 c0       	rjmp	.+44     	; 0xd50 <__call+0x82>
 d24:	8f 81       	ldd	r24, Y+7	; 0x07
 d26:	88 2f       	mov	r24, r24
 d28:	90 e0       	ldi	r25, 0x00	; 0
 d2a:	80 5b       	subi	r24, 0xB0	; 176
 d2c:	9f 4f       	sbci	r25, 0xFF	; 255
 d2e:	96 95       	lsr	r25
 d30:	98 2f       	mov	r25, r24
 d32:	88 27       	eor	r24, r24
 d34:	97 95       	ror	r25
 d36:	87 95       	ror	r24
 d38:	9e 83       	std	Y+6, r25	; 0x06
 d3a:	8d 83       	std	Y+5, r24	; 0x05
 d3c:	8d 81       	ldd	r24, Y+5	; 0x05
 d3e:	9e 81       	ldd	r25, Y+6	; 0x06
 d40:	96 95       	lsr	r25
 d42:	87 95       	ror	r24
 d44:	9a 83       	std	Y+2, r25	; 0x02
 d46:	89 83       	std	Y+1, r24	; 0x01
 d48:	89 81       	ldd	r24, Y+1	; 0x01
 d4a:	9a 81       	ldd	r25, Y+2	; 0x02
 d4c:	fc 01       	movw	r30, r24
 d4e:	09 95       	icall
 d50:	67 96       	adiw	r28, 0x17	; 23
 d52:	0f b6       	in	r0, 0x3f	; 63
 d54:	f8 94       	cli
 d56:	de bf       	out	0x3e, r29	; 62
 d58:	0f be       	out	0x3f, r0	; 63
 d5a:	cd bf       	out	0x3d, r28	; 61
 d5c:	df 91       	pop	r29
 d5e:	cf 91       	pop	r28
 d60:	08 95       	ret

00000d62 <escanf_P>:
 d62:	cf 93       	push	r28
 d64:	df 93       	push	r29
 d66:	cd b7       	in	r28, 0x3d	; 61
 d68:	de b7       	in	r29, 0x3e	; 62
 d6a:	ca 56       	subi	r28, 0x6A	; 106
 d6c:	d1 09       	sbc	r29, r1
 d6e:	0f b6       	in	r0, 0x3f	; 63
 d70:	f8 94       	cli
 d72:	de bf       	out	0x3e, r29	; 62
 d74:	0f be       	out	0x3f, r0	; 63
 d76:	cd bf       	out	0x3d, r28	; 61
 d78:	9e 01       	movw	r18, r28
 d7a:	29 59       	subi	r18, 0x99	; 153
 d7c:	3f 4f       	sbci	r19, 0xFF	; 255
 d7e:	f9 01       	movw	r30, r18
 d80:	91 83       	std	Z+1, r25	; 0x01
 d82:	80 83       	st	Z, r24
 d84:	ce 01       	movw	r24, r28
 d86:	87 59       	subi	r24, 0x97	; 151
 d88:	9f 4f       	sbci	r25, 0xFF	; 255
 d8a:	fc 01       	movw	r30, r24
 d8c:	71 83       	std	Z+1, r23	; 0x01
 d8e:	60 83       	st	Z, r22
 d90:	1a 82       	std	Y+2, r1	; 0x02
 d92:	19 82       	std	Y+1, r1	; 0x01
 d94:	80 91 02 01 	lds	r24, 0x0102	; 0x800102 <__bss_end>
 d98:	90 91 03 01 	lds	r25, 0x0103	; 0x800103 <__bss_end+0x1>
 d9c:	0e 94 b5 02 	call	0x56a	; 0x56a <__usart_receive_char>
 da0:	48 2f       	mov	r20, r24
 da2:	9e 01       	movw	r18, r28
 da4:	2d 5f       	subi	r18, 0xFD	; 253
 da6:	3f 4f       	sbci	r19, 0xFF	; 255
 da8:	89 81       	ldd	r24, Y+1	; 0x01
 daa:	9a 81       	ldd	r25, Y+2	; 0x02
 dac:	82 0f       	add	r24, r18
 dae:	93 1f       	adc	r25, r19
 db0:	fc 01       	movw	r30, r24
 db2:	40 83       	st	Z, r20
 db4:	9e 01       	movw	r18, r28
 db6:	2d 5f       	subi	r18, 0xFD	; 253
 db8:	3f 4f       	sbci	r19, 0xFF	; 255
 dba:	89 81       	ldd	r24, Y+1	; 0x01
 dbc:	9a 81       	ldd	r25, Y+2	; 0x02
 dbe:	82 0f       	add	r24, r18
 dc0:	93 1f       	adc	r25, r19
 dc2:	fc 01       	movw	r30, r24
 dc4:	80 81       	ld	r24, Z
 dc6:	8d 30       	cpi	r24, 0x0D	; 13
 dc8:	f1 f0       	breq	.+60     	; 0xe06 <escanf_P+0xa4>
 dca:	40 91 04 01 	lds	r20, 0x0104	; 0x800104 <__bss_end+0x2>
 dce:	50 91 05 01 	lds	r21, 0x0105	; 0x800105 <__bss_end+0x3>
 dd2:	9e 01       	movw	r18, r28
 dd4:	2d 5f       	subi	r18, 0xFD	; 253
 dd6:	3f 4f       	sbci	r19, 0xFF	; 255
 dd8:	89 81       	ldd	r24, Y+1	; 0x01
 dda:	9a 81       	ldd	r25, Y+2	; 0x02
 ddc:	82 0f       	add	r24, r18
 dde:	93 1f       	adc	r25, r19
 de0:	fc 01       	movw	r30, r24
 de2:	80 81       	ld	r24, Z
 de4:	08 2e       	mov	r0, r24
 de6:	00 0c       	add	r0, r0
 de8:	99 0b       	sbc	r25, r25
 dea:	ba 01       	movw	r22, r20
 dec:	0e 94 8c 08 	call	0x1118	; 0x1118 <fputc>
 df0:	89 81       	ldd	r24, Y+1	; 0x01
 df2:	9a 81       	ldd	r25, Y+2	; 0x02
 df4:	01 96       	adiw	r24, 0x01	; 1
 df6:	9a 83       	std	Y+2, r25	; 0x02
 df8:	89 83       	std	Y+1, r24	; 0x01
 dfa:	89 81       	ldd	r24, Y+1	; 0x01
 dfc:	9a 81       	ldd	r25, Y+2	; 0x02
 dfe:	84 36       	cpi	r24, 0x64	; 100
 e00:	91 05       	cpc	r25, r1
 e02:	40 f2       	brcs	.-112    	; 0xd94 <escanf_P+0x32>
 e04:	01 c0       	rjmp	.+2      	; 0xe08 <escanf_P+0xa6>
 e06:	00 00       	nop
 e08:	ce 01       	movw	r24, r28
 e0a:	87 59       	subi	r24, 0x97	; 151
 e0c:	9f 4f       	sbci	r25, 0xFF	; 255
 e0e:	fc 01       	movw	r30, r24
 e10:	21 81       	ldd	r18, Z+1	; 0x01
 e12:	2f 93       	push	r18
 e14:	fc 01       	movw	r30, r24
 e16:	80 81       	ld	r24, Z
 e18:	8f 93       	push	r24
 e1a:	ce 01       	movw	r24, r28
 e1c:	89 59       	subi	r24, 0x99	; 153
 e1e:	9f 4f       	sbci	r25, 0xFF	; 255
 e20:	fc 01       	movw	r30, r24
 e22:	21 81       	ldd	r18, Z+1	; 0x01
 e24:	2f 93       	push	r18
 e26:	fc 01       	movw	r30, r24
 e28:	80 81       	ld	r24, Z
 e2a:	8f 93       	push	r24
 e2c:	ce 01       	movw	r24, r28
 e2e:	03 96       	adiw	r24, 0x03	; 3
 e30:	29 2f       	mov	r18, r25
 e32:	2f 93       	push	r18
 e34:	8f 93       	push	r24
 e36:	0e 94 11 09 	call	0x1222	; 0x1222 <sscanf_P>
 e3a:	0f 90       	pop	r0
 e3c:	0f 90       	pop	r0
 e3e:	0f 90       	pop	r0
 e40:	0f 90       	pop	r0
 e42:	0f 90       	pop	r0
 e44:	0f 90       	pop	r0
 e46:	c6 59       	subi	r28, 0x96	; 150
 e48:	df 4f       	sbci	r29, 0xFF	; 255
 e4a:	0f b6       	in	r0, 0x3f	; 63
 e4c:	f8 94       	cli
 e4e:	de bf       	out	0x3e, r29	; 62
 e50:	0f be       	out	0x3f, r0	; 63
 e52:	cd bf       	out	0x3d, r28	; 61
 e54:	df 91       	pop	r29
 e56:	cf 91       	pop	r28
 e58:	08 95       	ret

00000e5a <egets>:
 e5a:	cf 93       	push	r28
 e5c:	df 93       	push	r29
 e5e:	00 d0       	rcall	.+0      	; 0xe60 <egets+0x6>
 e60:	00 d0       	rcall	.+0      	; 0xe62 <egets+0x8>
 e62:	cd b7       	in	r28, 0x3d	; 61
 e64:	de b7       	in	r29, 0x3e	; 62
 e66:	9c 83       	std	Y+4, r25	; 0x04
 e68:	8b 83       	std	Y+3, r24	; 0x03
 e6a:	1a 82       	std	Y+2, r1	; 0x02
 e6c:	19 82       	std	Y+1, r1	; 0x01
 e6e:	80 91 02 01 	lds	r24, 0x0102	; 0x800102 <__bss_end>
 e72:	90 91 03 01 	lds	r25, 0x0103	; 0x800103 <__bss_end+0x1>
 e76:	0e 94 b5 02 	call	0x56a	; 0x56a <__usart_receive_char>
 e7a:	ac 01       	movw	r20, r24
 e7c:	2b 81       	ldd	r18, Y+3	; 0x03
 e7e:	3c 81       	ldd	r19, Y+4	; 0x04
 e80:	89 81       	ldd	r24, Y+1	; 0x01
 e82:	9a 81       	ldd	r25, Y+2	; 0x02
 e84:	82 0f       	add	r24, r18
 e86:	93 1f       	adc	r25, r19
 e88:	24 2f       	mov	r18, r20
 e8a:	fc 01       	movw	r30, r24
 e8c:	20 83       	st	Z, r18
 e8e:	40 91 04 01 	lds	r20, 0x0104	; 0x800104 <__bss_end+0x2>
 e92:	50 91 05 01 	lds	r21, 0x0105	; 0x800105 <__bss_end+0x3>
 e96:	2b 81       	ldd	r18, Y+3	; 0x03
 e98:	3c 81       	ldd	r19, Y+4	; 0x04
 e9a:	89 81       	ldd	r24, Y+1	; 0x01
 e9c:	9a 81       	ldd	r25, Y+2	; 0x02
 e9e:	82 0f       	add	r24, r18
 ea0:	93 1f       	adc	r25, r19
 ea2:	fc 01       	movw	r30, r24
 ea4:	80 81       	ld	r24, Z
 ea6:	08 2e       	mov	r0, r24
 ea8:	00 0c       	add	r0, r0
 eaa:	99 0b       	sbc	r25, r25
 eac:	ba 01       	movw	r22, r20
 eae:	0e 94 8c 08 	call	0x1118	; 0x1118 <fputc>
 eb2:	2b 81       	ldd	r18, Y+3	; 0x03
 eb4:	3c 81       	ldd	r19, Y+4	; 0x04
 eb6:	89 81       	ldd	r24, Y+1	; 0x01
 eb8:	9a 81       	ldd	r25, Y+2	; 0x02
 eba:	82 0f       	add	r24, r18
 ebc:	93 1f       	adc	r25, r19
 ebe:	fc 01       	movw	r30, r24
 ec0:	80 81       	ld	r24, Z
 ec2:	8d 30       	cpi	r24, 0x0D	; 13
 ec4:	11 f1       	breq	.+68     	; 0xf0a <egets+0xb0>
 ec6:	2b 81       	ldd	r18, Y+3	; 0x03
 ec8:	3c 81       	ldd	r19, Y+4	; 0x04
 eca:	89 81       	ldd	r24, Y+1	; 0x01
 ecc:	9a 81       	ldd	r25, Y+2	; 0x02
 ece:	82 0f       	add	r24, r18
 ed0:	93 1f       	adc	r25, r19
 ed2:	fc 01       	movw	r30, r24
 ed4:	80 81       	ld	r24, Z
 ed6:	8f 37       	cpi	r24, 0x7F	; 127
 ed8:	51 f4       	brne	.+20     	; 0xeee <egets+0x94>
 eda:	89 81       	ldd	r24, Y+1	; 0x01
 edc:	9a 81       	ldd	r25, Y+2	; 0x02
 ede:	89 2b       	or	r24, r25
 ee0:	61 f0       	breq	.+24     	; 0xefa <egets+0xa0>
 ee2:	89 81       	ldd	r24, Y+1	; 0x01
 ee4:	9a 81       	ldd	r25, Y+2	; 0x02
 ee6:	01 97       	sbiw	r24, 0x01	; 1
 ee8:	9a 83       	std	Y+2, r25	; 0x02
 eea:	89 83       	std	Y+1, r24	; 0x01
 eec:	06 c0       	rjmp	.+12     	; 0xefa <egets+0xa0>
 eee:	89 81       	ldd	r24, Y+1	; 0x01
 ef0:	9a 81       	ldd	r25, Y+2	; 0x02
 ef2:	01 96       	adiw	r24, 0x01	; 1
 ef4:	9a 83       	std	Y+2, r25	; 0x02
 ef6:	89 83       	std	Y+1, r24	; 0x01
 ef8:	01 c0       	rjmp	.+2      	; 0xefc <egets+0xa2>
 efa:	00 00       	nop
 efc:	89 81       	ldd	r24, Y+1	; 0x01
 efe:	9a 81       	ldd	r25, Y+2	; 0x02
 f00:	88 3c       	cpi	r24, 0xC8	; 200
 f02:	91 05       	cpc	r25, r1
 f04:	08 f4       	brcc	.+2      	; 0xf08 <egets+0xae>
 f06:	b3 cf       	rjmp	.-154    	; 0xe6e <egets+0x14>
 f08:	01 c0       	rjmp	.+2      	; 0xf0c <egets+0xb2>
 f0a:	00 00       	nop
 f0c:	80 91 04 01 	lds	r24, 0x0104	; 0x800104 <__bss_end+0x2>
 f10:	90 91 05 01 	lds	r25, 0x0105	; 0x800105 <__bss_end+0x3>
 f14:	bc 01       	movw	r22, r24
 f16:	8a e0       	ldi	r24, 0x0A	; 10
 f18:	90 e0       	ldi	r25, 0x00	; 0
 f1a:	0e 94 8c 08 	call	0x1118	; 0x1118 <fputc>
 f1e:	2b 81       	ldd	r18, Y+3	; 0x03
 f20:	3c 81       	ldd	r19, Y+4	; 0x04
 f22:	89 81       	ldd	r24, Y+1	; 0x01
 f24:	9a 81       	ldd	r25, Y+2	; 0x02
 f26:	82 0f       	add	r24, r18
 f28:	93 1f       	adc	r25, r19
 f2a:	fc 01       	movw	r30, r24
 f2c:	10 82       	st	Z, r1
 f2e:	89 81       	ldd	r24, Y+1	; 0x01
 f30:	9a 81       	ldd	r25, Y+2	; 0x02
 f32:	0f 90       	pop	r0
 f34:	0f 90       	pop	r0
 f36:	0f 90       	pop	r0
 f38:	0f 90       	pop	r0
 f3a:	df 91       	pop	r29
 f3c:	cf 91       	pop	r28
 f3e:	08 95       	ret

Disassembly of section .vectors:

00000f40 <__vectors>:
 f40:	0c 94 d4 07 	jmp	0xfa8	; 0xfa8 <__init>
 f44:	0c 94 00 02 	jmp	0x400	; 0x400 <_binary___linkers_files_size>
 f48:	0c 94 00 02 	jmp	0x400	; 0x400 <_binary___linkers_files_size>
 f4c:	0c 94 00 02 	jmp	0x400	; 0x400 <_binary___linkers_files_size>
 f50:	0c 94 00 02 	jmp	0x400	; 0x400 <_binary___linkers_files_size>
 f54:	0c 94 00 02 	jmp	0x400	; 0x400 <_binary___linkers_files_size>
 f58:	0c 94 00 02 	jmp	0x400	; 0x400 <_binary___linkers_files_size>
 f5c:	0c 94 00 02 	jmp	0x400	; 0x400 <_binary___linkers_files_size>
 f60:	0c 94 00 02 	jmp	0x400	; 0x400 <_binary___linkers_files_size>
 f64:	0c 94 00 02 	jmp	0x400	; 0x400 <_binary___linkers_files_size>
 f68:	0c 94 00 02 	jmp	0x400	; 0x400 <_binary___linkers_files_size>
 f6c:	0c 94 00 02 	jmp	0x400	; 0x400 <_binary___linkers_files_size>
 f70:	0c 94 00 02 	jmp	0x400	; 0x400 <_binary___linkers_files_size>
 f74:	0c 94 00 02 	jmp	0x400	; 0x400 <_binary___linkers_files_size>
 f78:	0c 94 00 02 	jmp	0x400	; 0x400 <_binary___linkers_files_size>
 f7c:	0c 94 00 02 	jmp	0x400	; 0x400 <_binary___linkers_files_size>
 f80:	0c 94 00 02 	jmp	0x400	; 0x400 <_binary___linkers_files_size>
 f84:	0c 94 00 02 	jmp	0x400	; 0x400 <_binary___linkers_files_size>
 f88:	0c 94 00 02 	jmp	0x400	; 0x400 <_binary___linkers_files_size>
 f8c:	0c 94 00 02 	jmp	0x400	; 0x400 <_binary___linkers_files_size>
 f90:	0c 94 00 02 	jmp	0x400	; 0x400 <_binary___linkers_files_size>
 f94:	0c 94 00 02 	jmp	0x400	; 0x400 <_binary___linkers_files_size>
 f98:	0c 94 00 02 	jmp	0x400	; 0x400 <_binary___linkers_files_size>
 f9c:	0c 94 00 02 	jmp	0x400	; 0x400 <_binary___linkers_files_size>
 fa0:	0c 94 00 02 	jmp	0x400	; 0x400 <_binary___linkers_files_size>
 fa4:	0c 94 00 02 	jmp	0x400	; 0x400 <_binary___linkers_files_size>

Disassembly of section .init2:

00000fa8 <__init>:
 fa8:	11 24       	eor	r1, r1
 faa:	1f be       	out	0x3f, r1	; 63
 fac:	cf ef       	ldi	r28, 0xFF	; 255
 fae:	d8 e0       	ldi	r29, 0x08	; 8
 fb0:	de bf       	out	0x3e, r29	; 62
 fb2:	cd bf       	out	0x3d, r28	; 61

Disassembly of section .init9:

00000fb4 <.init9>:
 fb4:	0e 94 02 02 	call	0x404	; 0x404 <main>
 fb8:	0c 94 15 08 	jmp	0x102a	; 0x102a <_exit>

Disassembly of section .text.libgcc.prologue:

00000fbc <__prologue_saves__>:
     fbc:	2f 92       	push	r2
     fbe:	3f 92       	push	r3
     fc0:	4f 92       	push	r4
     fc2:	5f 92       	push	r5
     fc4:	6f 92       	push	r6
     fc6:	7f 92       	push	r7
     fc8:	8f 92       	push	r8
     fca:	9f 92       	push	r9
     fcc:	af 92       	push	r10
     fce:	bf 92       	push	r11
     fd0:	cf 92       	push	r12
     fd2:	df 92       	push	r13
     fd4:	ef 92       	push	r14
     fd6:	ff 92       	push	r15
     fd8:	0f 93       	push	r16
     fda:	1f 93       	push	r17
     fdc:	cf 93       	push	r28
     fde:	df 93       	push	r29
     fe0:	cd b7       	in	r28, 0x3d	; 61
     fe2:	de b7       	in	r29, 0x3e	; 62
     fe4:	ca 1b       	sub	r28, r26
     fe6:	db 0b       	sbc	r29, r27
     fe8:	0f b6       	in	r0, 0x3f	; 63
     fea:	f8 94       	cli
     fec:	de bf       	out	0x3e, r29	; 62
     fee:	0f be       	out	0x3f, r0	; 63
     ff0:	cd bf       	out	0x3d, r28	; 61
     ff2:	09 94       	ijmp

00000ff4 <__epilogue_restores__>:
     ff4:	2a 88       	ldd	r2, Y+18	; 0x12
     ff6:	39 88       	ldd	r3, Y+17	; 0x11
     ff8:	48 88       	ldd	r4, Y+16	; 0x10
     ffa:	5f 84       	ldd	r5, Y+15	; 0x0f
     ffc:	6e 84       	ldd	r6, Y+14	; 0x0e
     ffe:	7d 84       	ldd	r7, Y+13	; 0x0d
    1000:	8c 84       	ldd	r8, Y+12	; 0x0c
    1002:	9b 84       	ldd	r9, Y+11	; 0x0b
    1004:	aa 84       	ldd	r10, Y+10	; 0x0a
    1006:	b9 84       	ldd	r11, Y+9	; 0x09
    1008:	c8 84       	ldd	r12, Y+8	; 0x08
    100a:	df 80       	ldd	r13, Y+7	; 0x07
    100c:	ee 80       	ldd	r14, Y+6	; 0x06
    100e:	fd 80       	ldd	r15, Y+5	; 0x05
    1010:	0c 81       	ldd	r16, Y+4	; 0x04
    1012:	1b 81       	ldd	r17, Y+3	; 0x03
    1014:	aa 81       	ldd	r26, Y+2	; 0x02
    1016:	b9 81       	ldd	r27, Y+1	; 0x01
    1018:	ce 0f       	add	r28, r30
    101a:	d1 1d       	adc	r29, r1
    101c:	0f b6       	in	r0, 0x3f	; 63
    101e:	f8 94       	cli
    1020:	de bf       	out	0x3e, r29	; 62
    1022:	0f be       	out	0x3f, r0	; 63
    1024:	cd bf       	out	0x3d, r28	; 61
    1026:	ed 01       	movw	r28, r26
    1028:	08 95       	ret

Disassembly of section .fini0:

0000102a <_exit>:
    102a:	f8 94       	cli

0000102c <__stop_program>:
    102c:	ff cf       	rjmp	.-2      	; 0x102c <__stop_program>

Disassembly of section .init4:

0000102e <__do_copy_data>:
    102e:	11 e0       	ldi	r17, 0x01	; 1
    1030:	a0 e0       	ldi	r26, 0x00	; 0
    1032:	b1 e0       	ldi	r27, 0x01	; 1
    1034:	e0 e0       	ldi	r30, 0x00	; 0
    1036:	f1 e0       	ldi	r31, 0x01	; 1
    1038:	02 c0       	rjmp	.+4      	; 0x103e <__do_copy_data+0x10>
    103a:	05 90       	lpm	r0, Z+
    103c:	0d 92       	st	X+, r0
    103e:	a0 30       	cpi	r26, 0x00	; 0
    1040:	b1 07       	cpc	r27, r17
    1042:	d9 f7       	brne	.-10     	; 0x103a <__do_copy_data+0xc>

00001044 <__do_clear_bss>:
    1044:	21 e0       	ldi	r18, 0x01	; 1
    1046:	a0 e0       	ldi	r26, 0x00	; 0
    1048:	b1 e0       	ldi	r27, 0x01	; 1
    104a:	01 c0       	rjmp	.+2      	; 0x104e <.do_clear_bss_start>

0000104c <.do_clear_bss_loop>:
    104c:	1d 92       	st	X+, r1

0000104e <.do_clear_bss_start>:
    104e:	a2 30       	cpi	r26, 0x02	; 2
    1050:	b2 07       	cpc	r27, r18
    1052:	e1 f7       	brne	.-8      	; 0x104c <.do_clear_bss_loop>

Disassembly of section .text.avr-libc:

00001054 <strcpy_P>:
    1054:	fb 01       	movw	r30, r22
    1056:	dc 01       	movw	r26, r24
    1058:	05 90       	lpm	r0, Z+
    105a:	0d 92       	st	X+, r0
    105c:	00 20       	and	r0, r0
    105e:	e1 f7       	brne	.-8      	; 0x1058 <strcpy_P+0x4>
    1060:	08 95       	ret

00001062 <strtok>:
    1062:	40 e0       	ldi	r20, 0x00	; 0
    1064:	51 e0       	ldi	r21, 0x01	; 1
    1066:	0e 94 65 08 	call	0x10ca	; 0x10ca <strtok_r>
    106a:	08 95       	ret

0000106c <strcat>:
    106c:	fb 01       	movw	r30, r22
    106e:	dc 01       	movw	r26, r24
    1070:	0d 90       	ld	r0, X+
    1072:	00 20       	and	r0, r0
    1074:	e9 f7       	brne	.-6      	; 0x1070 <strcat+0x4>
    1076:	11 97       	sbiw	r26, 0x01	; 1
    1078:	01 90       	ld	r0, Z+
    107a:	0d 92       	st	X+, r0
    107c:	00 20       	and	r0, r0
    107e:	e1 f7       	brne	.-8      	; 0x1078 <strcat+0xc>
    1080:	08 95       	ret

00001082 <strcmp>:
    1082:	fb 01       	movw	r30, r22
    1084:	dc 01       	movw	r26, r24
    1086:	8d 91       	ld	r24, X+
    1088:	01 90       	ld	r0, Z+
    108a:	80 19       	sub	r24, r0
    108c:	01 10       	cpse	r0, r1
    108e:	d9 f3       	breq	.-10     	; 0x1086 <strcmp+0x4>
    1090:	99 0b       	sbc	r25, r25
    1092:	08 95       	ret

00001094 <strcpy>:
    1094:	fb 01       	movw	r30, r22
    1096:	dc 01       	movw	r26, r24
    1098:	01 90       	ld	r0, Z+
    109a:	0d 92       	st	X+, r0
    109c:	00 20       	and	r0, r0
    109e:	e1 f7       	brne	.-8      	; 0x1098 <strcpy+0x4>
    10a0:	08 95       	ret

000010a2 <strlen>:
    10a2:	fc 01       	movw	r30, r24
    10a4:	01 90       	ld	r0, Z+
    10a6:	00 20       	and	r0, r0
    10a8:	e9 f7       	brne	.-6      	; 0x10a4 <strlen+0x2>
    10aa:	80 95       	com	r24
    10ac:	90 95       	com	r25
    10ae:	8e 0f       	add	r24, r30
    10b0:	9f 1f       	adc	r25, r31
    10b2:	08 95       	ret

000010b4 <strrchr>:
    10b4:	fc 01       	movw	r30, r24
    10b6:	81 e0       	ldi	r24, 0x01	; 1
    10b8:	90 e0       	ldi	r25, 0x00	; 0
    10ba:	01 90       	ld	r0, Z+
    10bc:	06 16       	cp	r0, r22
    10be:	09 f4       	brne	.+2      	; 0x10c2 <strrchr+0xe>
    10c0:	cf 01       	movw	r24, r30
    10c2:	00 20       	and	r0, r0
    10c4:	d1 f7       	brne	.-12     	; 0x10ba <strrchr+0x6>
    10c6:	01 97       	sbiw	r24, 0x01	; 1
    10c8:	08 95       	ret

000010ca <strtok_r>:
    10ca:	fa 01       	movw	r30, r20
    10cc:	a1 91       	ld	r26, Z+
    10ce:	b0 81       	ld	r27, Z
    10d0:	00 97       	sbiw	r24, 0x00	; 0
    10d2:	19 f4       	brne	.+6      	; 0x10da <strtok_r+0x10>
    10d4:	10 97       	sbiw	r26, 0x00	; 0
    10d6:	e1 f0       	breq	.+56     	; 0x1110 <strtok_r+0x46>
    10d8:	cd 01       	movw	r24, r26
    10da:	dc 01       	movw	r26, r24
    10dc:	cd 01       	movw	r24, r26
    10de:	0d 90       	ld	r0, X+
    10e0:	00 20       	and	r0, r0
    10e2:	11 f4       	brne	.+4      	; 0x10e8 <strtok_r+0x1e>
    10e4:	c0 01       	movw	r24, r0
    10e6:	13 c0       	rjmp	.+38     	; 0x110e <strtok_r+0x44>
    10e8:	fb 01       	movw	r30, r22
    10ea:	21 91       	ld	r18, Z+
    10ec:	22 23       	and	r18, r18
    10ee:	19 f0       	breq	.+6      	; 0x10f6 <strtok_r+0x2c>
    10f0:	20 15       	cp	r18, r0
    10f2:	d9 f7       	brne	.-10     	; 0x10ea <strtok_r+0x20>
    10f4:	f3 cf       	rjmp	.-26     	; 0x10dc <strtok_r+0x12>
    10f6:	fb 01       	movw	r30, r22
    10f8:	21 91       	ld	r18, Z+
    10fa:	20 15       	cp	r18, r0
    10fc:	19 f4       	brne	.+6      	; 0x1104 <strtok_r+0x3a>
    10fe:	1e 92       	st	-X, r1
    1100:	11 96       	adiw	r26, 0x01	; 1
    1102:	06 c0       	rjmp	.+12     	; 0x1110 <strtok_r+0x46>
    1104:	22 23       	and	r18, r18
    1106:	c1 f7       	brne	.-16     	; 0x10f8 <strtok_r+0x2e>
    1108:	0d 90       	ld	r0, X+
    110a:	00 20       	and	r0, r0
    110c:	a1 f7       	brne	.-24     	; 0x10f6 <strtok_r+0x2c>
    110e:	d0 01       	movw	r26, r0
    1110:	fa 01       	movw	r30, r20
    1112:	a1 93       	st	Z+, r26
    1114:	b0 83       	st	Z, r27
    1116:	08 95       	ret

00001118 <fputc>:
    1118:	0f 93       	push	r16
    111a:	1f 93       	push	r17
    111c:	cf 93       	push	r28
    111e:	df 93       	push	r29
    1120:	18 2f       	mov	r17, r24
    1122:	09 2f       	mov	r16, r25
    1124:	eb 01       	movw	r28, r22
    1126:	8b 81       	ldd	r24, Y+3	; 0x03
    1128:	81 fd       	sbrc	r24, 1
    112a:	09 c0       	rjmp	.+18     	; 0x113e <fputc+0x26>
    112c:	1f ef       	ldi	r17, 0xFF	; 255
    112e:	0f ef       	ldi	r16, 0xFF	; 255
    1130:	81 2f       	mov	r24, r17
    1132:	90 2f       	mov	r25, r16
    1134:	df 91       	pop	r29
    1136:	cf 91       	pop	r28
    1138:	1f 91       	pop	r17
    113a:	0f 91       	pop	r16
    113c:	08 95       	ret
    113e:	82 ff       	sbrs	r24, 2
    1140:	14 c0       	rjmp	.+40     	; 0x116a <fputc+0x52>
    1142:	2e 81       	ldd	r18, Y+6	; 0x06
    1144:	3f 81       	ldd	r19, Y+7	; 0x07
    1146:	8c 81       	ldd	r24, Y+4	; 0x04
    1148:	9d 81       	ldd	r25, Y+5	; 0x05
    114a:	28 17       	cp	r18, r24
    114c:	39 07       	cpc	r19, r25
    114e:	3c f4       	brge	.+14     	; 0x115e <fputc+0x46>
    1150:	e8 81       	ld	r30, Y
    1152:	f9 81       	ldd	r31, Y+1	; 0x01
    1154:	cf 01       	movw	r24, r30
    1156:	01 96       	adiw	r24, 0x01	; 1
    1158:	99 83       	std	Y+1, r25	; 0x01
    115a:	88 83       	st	Y, r24
    115c:	10 83       	st	Z, r17
    115e:	8e 81       	ldd	r24, Y+6	; 0x06
    1160:	9f 81       	ldd	r25, Y+7	; 0x07
    1162:	01 96       	adiw	r24, 0x01	; 1
    1164:	9f 83       	std	Y+7, r25	; 0x07
    1166:	8e 83       	std	Y+6, r24	; 0x06
    1168:	e3 cf       	rjmp	.-58     	; 0x1130 <fputc+0x18>
    116a:	e8 85       	ldd	r30, Y+8	; 0x08
    116c:	f9 85       	ldd	r31, Y+9	; 0x09
    116e:	81 2f       	mov	r24, r17
    1170:	09 95       	icall
    1172:	89 2b       	or	r24, r25
    1174:	a1 f3       	breq	.-24     	; 0x115e <fputc+0x46>
    1176:	da cf       	rjmp	.-76     	; 0x112c <fputc+0x14>

00001178 <fwrite>:
    1178:	b0 e0       	ldi	r27, 0x00	; 0
    117a:	a0 e0       	ldi	r26, 0x00	; 0
    117c:	e2 ec       	ldi	r30, 0xC2	; 194
    117e:	f8 e0       	ldi	r31, 0x08	; 8
    1180:	0c 94 e4 07 	jmp	0xfc8	; 0xfc8 <__prologue_saves__+0xc>
    1184:	5b 01       	movw	r10, r22
    1186:	4a 01       	movw	r8, r20
    1188:	79 01       	movw	r14, r18
    118a:	d9 01       	movw	r26, r18
    118c:	13 96       	adiw	r26, 0x03	; 3
    118e:	2c 91       	ld	r18, X
    1190:	d0 e0       	ldi	r29, 0x00	; 0
    1192:	c0 e0       	ldi	r28, 0x00	; 0
    1194:	21 ff       	sbrs	r18, 1
    1196:	1a c0       	rjmp	.+52     	; 0x11cc <fwrite+0x54>
    1198:	c8 15       	cp	r28, r8
    119a:	d9 05       	cpc	r29, r9
    119c:	b9 f0       	breq	.+46     	; 0x11cc <fwrite+0x54>
    119e:	8c 01       	movw	r16, r24
    11a0:	6c 01       	movw	r12, r24
    11a2:	ca 0c       	add	r12, r10
    11a4:	db 1c       	adc	r13, r11
    11a6:	0c c0       	rjmp	.+24     	; 0x11c0 <fwrite+0x48>
    11a8:	0f 5f       	subi	r16, 0xFF	; 255
    11aa:	1f 4f       	sbci	r17, 0xFF	; 255
    11ac:	d7 01       	movw	r26, r14
    11ae:	18 96       	adiw	r26, 0x08	; 8
    11b0:	ed 91       	ld	r30, X+
    11b2:	fc 91       	ld	r31, X
    11b4:	b7 01       	movw	r22, r14
    11b6:	dc 01       	movw	r26, r24
    11b8:	8c 91       	ld	r24, X
    11ba:	09 95       	icall
    11bc:	89 2b       	or	r24, r25
    11be:	31 f4       	brne	.+12     	; 0x11cc <fwrite+0x54>
    11c0:	c8 01       	movw	r24, r16
    11c2:	0c 15       	cp	r16, r12
    11c4:	1d 05       	cpc	r17, r13
    11c6:	81 f7       	brne	.-32     	; 0x11a8 <fwrite+0x30>
    11c8:	21 96       	adiw	r28, 0x01	; 1
    11ca:	e6 cf       	rjmp	.-52     	; 0x1198 <fwrite+0x20>
    11cc:	ce 01       	movw	r24, r28
    11ce:	cd b7       	in	r28, 0x3d	; 61
    11d0:	de b7       	in	r29, 0x3e	; 62
    11d2:	ec e0       	ldi	r30, 0x0C	; 12
    11d4:	0c 94 00 08 	jmp	0x1000	; 0x1000 <__epilogue_restores__+0xc>

000011d8 <printf_P>:
    11d8:	b0 e0       	ldi	r27, 0x00	; 0
    11da:	a0 e0       	ldi	r26, 0x00	; 0
    11dc:	e2 ef       	ldi	r30, 0xF2	; 242
    11de:	f8 e0       	ldi	r31, 0x08	; 8
    11e0:	0c 94 ec 07 	jmp	0xfd8	; 0xfd8 <__prologue_saves__+0x1c>
    11e4:	ae 01       	movw	r20, r28
    11e6:	49 5f       	subi	r20, 0xF9	; 249
    11e8:	5f 4f       	sbci	r21, 0xFF	; 255
    11ea:	da 01       	movw	r26, r20
    11ec:	6d 91       	ld	r22, X+
    11ee:	7d 91       	ld	r23, X+
    11f0:	ad 01       	movw	r20, r26
    11f2:	02 e0       	ldi	r16, 0x02	; 2
    11f4:	11 e0       	ldi	r17, 0x01	; 1
    11f6:	f8 01       	movw	r30, r16
    11f8:	82 81       	ldd	r24, Z+2	; 0x02
    11fa:	93 81       	ldd	r25, Z+3	; 0x03
    11fc:	dc 01       	movw	r26, r24
    11fe:	13 96       	adiw	r26, 0x03	; 3
    1200:	2c 91       	ld	r18, X
    1202:	13 97       	sbiw	r26, 0x03	; 3
    1204:	28 60       	ori	r18, 0x08	; 8
    1206:	13 96       	adiw	r26, 0x03	; 3
    1208:	2c 93       	st	X, r18
    120a:	0e 94 2a 09 	call	0x1254	; 0x1254 <vfprintf>
    120e:	d8 01       	movw	r26, r16
    1210:	12 96       	adiw	r26, 0x02	; 2
    1212:	ed 91       	ld	r30, X+
    1214:	fc 91       	ld	r31, X
    1216:	23 81       	ldd	r18, Z+3	; 0x03
    1218:	27 7f       	andi	r18, 0xF7	; 247
    121a:	23 83       	std	Z+3, r18	; 0x03
    121c:	e4 e0       	ldi	r30, 0x04	; 4
    121e:	0c 94 08 08 	jmp	0x1010	; 0x1010 <__epilogue_restores__+0x1c>

00001222 <sscanf_P>:
    1222:	ae e0       	ldi	r26, 0x0E	; 14
    1224:	b0 e0       	ldi	r27, 0x00	; 0
    1226:	e7 e1       	ldi	r30, 0x17	; 23
    1228:	f9 e0       	ldi	r31, 0x09	; 9
    122a:	0c 94 ee 07 	jmp	0xfdc	; 0xfdc <__prologue_saves__+0x20>
    122e:	8d e0       	ldi	r24, 0x0D	; 13
    1230:	8c 83       	std	Y+4, r24	; 0x04
    1232:	8b 89       	ldd	r24, Y+19	; 0x13
    1234:	9c 89       	ldd	r25, Y+20	; 0x14
    1236:	9a 83       	std	Y+2, r25	; 0x02
    1238:	89 83       	std	Y+1, r24	; 0x01
    123a:	ae 01       	movw	r20, r28
    123c:	49 5e       	subi	r20, 0xE9	; 233
    123e:	5f 4f       	sbci	r21, 0xFF	; 255
    1240:	6d 89       	ldd	r22, Y+21	; 0x15
    1242:	7e 89       	ldd	r23, Y+22	; 0x16
    1244:	ce 01       	movw	r24, r28
    1246:	01 96       	adiw	r24, 0x01	; 1
    1248:	0e 94 8f 0c 	call	0x191e	; 0x191e <vfscanf>
    124c:	2e 96       	adiw	r28, 0x0e	; 14
    124e:	e2 e0       	ldi	r30, 0x02	; 2
    1250:	0c 94 0a 08 	jmp	0x1014	; 0x1014 <__epilogue_restores__+0x20>

00001254 <vfprintf>:
    1254:	ab e0       	ldi	r26, 0x0B	; 11
    1256:	b0 e0       	ldi	r27, 0x00	; 0
    1258:	e0 e3       	ldi	r30, 0x30	; 48
    125a:	f9 e0       	ldi	r31, 0x09	; 9
    125c:	0c 94 de 07 	jmp	0xfbc	; 0xfbc <__prologue_saves__>
    1260:	7c 01       	movw	r14, r24
    1262:	3b 01       	movw	r6, r22
    1264:	8a 01       	movw	r16, r20
    1266:	fc 01       	movw	r30, r24
    1268:	17 82       	std	Z+7, r1	; 0x07
    126a:	16 82       	std	Z+6, r1	; 0x06
    126c:	83 81       	ldd	r24, Z+3	; 0x03
    126e:	81 ff       	sbrs	r24, 1
    1270:	c8 c1       	rjmp	.+912    	; 0x1602 <vfprintf+0x3ae>
    1272:	ce 01       	movw	r24, r28
    1274:	01 96       	adiw	r24, 0x01	; 1
    1276:	5c 01       	movw	r10, r24
    1278:	f7 01       	movw	r30, r14
    127a:	93 81       	ldd	r25, Z+3	; 0x03
    127c:	f3 01       	movw	r30, r6
    127e:	93 fd       	sbrc	r25, 3
    1280:	85 91       	lpm	r24, Z+
    1282:	93 ff       	sbrs	r25, 3
    1284:	81 91       	ld	r24, Z+
    1286:	3f 01       	movw	r6, r30
    1288:	88 23       	and	r24, r24
    128a:	09 f4       	brne	.+2      	; 0x128e <vfprintf+0x3a>
    128c:	53 c1       	rjmp	.+678    	; 0x1534 <vfprintf+0x2e0>
    128e:	85 32       	cpi	r24, 0x25	; 37
    1290:	39 f4       	brne	.+14     	; 0x12a0 <vfprintf+0x4c>
    1292:	93 fd       	sbrc	r25, 3
    1294:	85 91       	lpm	r24, Z+
    1296:	93 ff       	sbrs	r25, 3
    1298:	81 91       	ld	r24, Z+
    129a:	3f 01       	movw	r6, r30
    129c:	85 32       	cpi	r24, 0x25	; 37
    129e:	29 f4       	brne	.+10     	; 0x12aa <vfprintf+0x56>
    12a0:	b7 01       	movw	r22, r14
    12a2:	90 e0       	ldi	r25, 0x00	; 0
    12a4:	0e 94 8c 08 	call	0x1118	; 0x1118 <fputc>
    12a8:	e7 cf       	rjmp	.-50     	; 0x1278 <vfprintf+0x24>
    12aa:	91 2c       	mov	r9, r1
    12ac:	21 2c       	mov	r2, r1
    12ae:	31 2c       	mov	r3, r1
    12b0:	ff e1       	ldi	r31, 0x1F	; 31
    12b2:	f3 15       	cp	r31, r3
    12b4:	38 f0       	brcs	.+14     	; 0x12c4 <vfprintf+0x70>
    12b6:	8b 32       	cpi	r24, 0x2B	; 43
    12b8:	11 f1       	breq	.+68     	; 0x12fe <vfprintf+0xaa>
    12ba:	90 f4       	brcc	.+36     	; 0x12e0 <vfprintf+0x8c>
    12bc:	80 32       	cpi	r24, 0x20	; 32
    12be:	09 f1       	breq	.+66     	; 0x1302 <vfprintf+0xae>
    12c0:	83 32       	cpi	r24, 0x23	; 35
    12c2:	29 f1       	breq	.+74     	; 0x130e <vfprintf+0xba>
    12c4:	37 fc       	sbrc	r3, 7
    12c6:	3c c0       	rjmp	.+120    	; 0x1340 <vfprintf+0xec>
    12c8:	20 ed       	ldi	r18, 0xD0	; 208
    12ca:	28 0f       	add	r18, r24
    12cc:	2a 30       	cpi	r18, 0x0A	; 10
    12ce:	50 f5       	brcc	.+84     	; 0x1324 <vfprintf+0xd0>
    12d0:	36 fe       	sbrs	r3, 6
    12d2:	20 c0       	rjmp	.+64     	; 0x1314 <vfprintf+0xc0>
    12d4:	8a e0       	ldi	r24, 0x0A	; 10
    12d6:	98 9e       	mul	r9, r24
    12d8:	20 0d       	add	r18, r0
    12da:	11 24       	eor	r1, r1
    12dc:	92 2e       	mov	r9, r18
    12de:	06 c0       	rjmp	.+12     	; 0x12ec <vfprintf+0x98>
    12e0:	8d 32       	cpi	r24, 0x2D	; 45
    12e2:	91 f0       	breq	.+36     	; 0x1308 <vfprintf+0xb4>
    12e4:	80 33       	cpi	r24, 0x30	; 48
    12e6:	71 f7       	brne	.-36     	; 0x12c4 <vfprintf+0x70>
    12e8:	68 94       	set
    12ea:	30 f8       	bld	r3, 0
    12ec:	f3 01       	movw	r30, r6
    12ee:	93 fd       	sbrc	r25, 3
    12f0:	85 91       	lpm	r24, Z+
    12f2:	93 ff       	sbrs	r25, 3
    12f4:	81 91       	ld	r24, Z+
    12f6:	3f 01       	movw	r6, r30
    12f8:	81 11       	cpse	r24, r1
    12fa:	da cf       	rjmp	.-76     	; 0x12b0 <vfprintf+0x5c>
    12fc:	21 c0       	rjmp	.+66     	; 0x1340 <vfprintf+0xec>
    12fe:	68 94       	set
    1300:	31 f8       	bld	r3, 1
    1302:	68 94       	set
    1304:	32 f8       	bld	r3, 2
    1306:	f2 cf       	rjmp	.-28     	; 0x12ec <vfprintf+0x98>
    1308:	68 94       	set
    130a:	33 f8       	bld	r3, 3
    130c:	ef cf       	rjmp	.-34     	; 0x12ec <vfprintf+0x98>
    130e:	68 94       	set
    1310:	34 f8       	bld	r3, 4
    1312:	ec cf       	rjmp	.-40     	; 0x12ec <vfprintf+0x98>
    1314:	ea e0       	ldi	r30, 0x0A	; 10
    1316:	2e 9e       	mul	r2, r30
    1318:	20 0d       	add	r18, r0
    131a:	11 24       	eor	r1, r1
    131c:	22 2e       	mov	r2, r18
    131e:	68 94       	set
    1320:	35 f8       	bld	r3, 5
    1322:	e4 cf       	rjmp	.-56     	; 0x12ec <vfprintf+0x98>
    1324:	8e 32       	cpi	r24, 0x2E	; 46
    1326:	29 f4       	brne	.+10     	; 0x1332 <vfprintf+0xde>
    1328:	36 fc       	sbrc	r3, 6
    132a:	04 c1       	rjmp	.+520    	; 0x1534 <vfprintf+0x2e0>
    132c:	68 94       	set
    132e:	36 f8       	bld	r3, 6
    1330:	dd cf       	rjmp	.-70     	; 0x12ec <vfprintf+0x98>
    1332:	8c 36       	cpi	r24, 0x6C	; 108
    1334:	19 f4       	brne	.+6      	; 0x133c <vfprintf+0xe8>
    1336:	68 94       	set
    1338:	37 f8       	bld	r3, 7
    133a:	d8 cf       	rjmp	.-80     	; 0x12ec <vfprintf+0x98>
    133c:	88 36       	cpi	r24, 0x68	; 104
    133e:	b1 f2       	breq	.-84     	; 0x12ec <vfprintf+0x98>
    1340:	98 2f       	mov	r25, r24
    1342:	9f 7d       	andi	r25, 0xDF	; 223
    1344:	95 54       	subi	r25, 0x45	; 69
    1346:	93 30       	cpi	r25, 0x03	; 3
    1348:	e0 f0       	brcs	.+56     	; 0x1382 <vfprintf+0x12e>
    134a:	83 36       	cpi	r24, 0x63	; 99
    134c:	a1 f1       	breq	.+104    	; 0x13b6 <vfprintf+0x162>
    134e:	83 37       	cpi	r24, 0x73	; 115
    1350:	c1 f1       	breq	.+112    	; 0x13c2 <vfprintf+0x16e>
    1352:	83 35       	cpi	r24, 0x53	; 83
    1354:	09 f0       	breq	.+2      	; 0x1358 <vfprintf+0x104>
    1356:	63 c0       	rjmp	.+198    	; 0x141e <vfprintf+0x1ca>
    1358:	28 01       	movw	r4, r16
    135a:	f2 e0       	ldi	r31, 0x02	; 2
    135c:	4f 0e       	add	r4, r31
    135e:	51 1c       	adc	r5, r1
    1360:	f8 01       	movw	r30, r16
    1362:	c0 80       	ld	r12, Z
    1364:	d1 80       	ldd	r13, Z+1	; 0x01
    1366:	69 2d       	mov	r22, r9
    1368:	70 e0       	ldi	r23, 0x00	; 0
    136a:	36 fc       	sbrc	r3, 6
    136c:	02 c0       	rjmp	.+4      	; 0x1372 <vfprintf+0x11e>
    136e:	6f ef       	ldi	r22, 0xFF	; 255
    1370:	7f ef       	ldi	r23, 0xFF	; 255
    1372:	c6 01       	movw	r24, r12
    1374:	0e 94 a8 0d 	call	0x1b50	; 0x1b50 <strnlen_P>
    1378:	4c 01       	movw	r8, r24
    137a:	68 94       	set
    137c:	37 f8       	bld	r3, 7
    137e:	82 01       	movw	r16, r4
    1380:	0a c0       	rjmp	.+20     	; 0x1396 <vfprintf+0x142>
    1382:	0c 5f       	subi	r16, 0xFC	; 252
    1384:	1f 4f       	sbci	r17, 0xFF	; 255
    1386:	ff e3       	ldi	r31, 0x3F	; 63
    1388:	f9 83       	std	Y+1, r31	; 0x01
    138a:	88 24       	eor	r8, r8
    138c:	83 94       	inc	r8
    138e:	91 2c       	mov	r9, r1
    1390:	65 01       	movw	r12, r10
    1392:	e8 94       	clt
    1394:	37 f8       	bld	r3, 7
    1396:	33 fe       	sbrs	r3, 3
    1398:	2d c0       	rjmp	.+90     	; 0x13f4 <vfprintf+0x1a0>
    139a:	52 2c       	mov	r5, r2
    139c:	81 14       	cp	r8, r1
    139e:	91 04       	cpc	r9, r1
    13a0:	71 f5       	brne	.+92     	; 0x13fe <vfprintf+0x1aa>
    13a2:	55 20       	and	r5, r5
    13a4:	09 f4       	brne	.+2      	; 0x13a8 <vfprintf+0x154>
    13a6:	68 cf       	rjmp	.-304    	; 0x1278 <vfprintf+0x24>
    13a8:	b7 01       	movw	r22, r14
    13aa:	80 e2       	ldi	r24, 0x20	; 32
    13ac:	90 e0       	ldi	r25, 0x00	; 0
    13ae:	0e 94 8c 08 	call	0x1118	; 0x1118 <fputc>
    13b2:	5a 94       	dec	r5
    13b4:	f6 cf       	rjmp	.-20     	; 0x13a2 <vfprintf+0x14e>
    13b6:	f8 01       	movw	r30, r16
    13b8:	80 81       	ld	r24, Z
    13ba:	89 83       	std	Y+1, r24	; 0x01
    13bc:	0e 5f       	subi	r16, 0xFE	; 254
    13be:	1f 4f       	sbci	r17, 0xFF	; 255
    13c0:	e4 cf       	rjmp	.-56     	; 0x138a <vfprintf+0x136>
    13c2:	28 01       	movw	r4, r16
    13c4:	f2 e0       	ldi	r31, 0x02	; 2
    13c6:	4f 0e       	add	r4, r31
    13c8:	51 1c       	adc	r5, r1
    13ca:	f8 01       	movw	r30, r16
    13cc:	c0 80       	ld	r12, Z
    13ce:	d1 80       	ldd	r13, Z+1	; 0x01
    13d0:	69 2d       	mov	r22, r9
    13d2:	70 e0       	ldi	r23, 0x00	; 0
    13d4:	36 fc       	sbrc	r3, 6
    13d6:	02 c0       	rjmp	.+4      	; 0x13dc <vfprintf+0x188>
    13d8:	6f ef       	ldi	r22, 0xFF	; 255
    13da:	7f ef       	ldi	r23, 0xFF	; 255
    13dc:	c6 01       	movw	r24, r12
    13de:	0e 94 b3 0d 	call	0x1b66	; 0x1b66 <strnlen>
    13e2:	4c 01       	movw	r8, r24
    13e4:	82 01       	movw	r16, r4
    13e6:	d5 cf       	rjmp	.-86     	; 0x1392 <vfprintf+0x13e>
    13e8:	b7 01       	movw	r22, r14
    13ea:	80 e2       	ldi	r24, 0x20	; 32
    13ec:	90 e0       	ldi	r25, 0x00	; 0
    13ee:	0e 94 8c 08 	call	0x1118	; 0x1118 <fputc>
    13f2:	2a 94       	dec	r2
    13f4:	28 14       	cp	r2, r8
    13f6:	19 04       	cpc	r1, r9
    13f8:	09 f0       	breq	.+2      	; 0x13fc <vfprintf+0x1a8>
    13fa:	b0 f7       	brcc	.-20     	; 0x13e8 <vfprintf+0x194>
    13fc:	ce cf       	rjmp	.-100    	; 0x139a <vfprintf+0x146>
    13fe:	f6 01       	movw	r30, r12
    1400:	37 fc       	sbrc	r3, 7
    1402:	85 91       	lpm	r24, Z+
    1404:	37 fe       	sbrs	r3, 7
    1406:	81 91       	ld	r24, Z+
    1408:	6f 01       	movw	r12, r30
    140a:	b7 01       	movw	r22, r14
    140c:	90 e0       	ldi	r25, 0x00	; 0
    140e:	0e 94 8c 08 	call	0x1118	; 0x1118 <fputc>
    1412:	51 10       	cpse	r5, r1
    1414:	5a 94       	dec	r5
    1416:	f1 e0       	ldi	r31, 0x01	; 1
    1418:	8f 1a       	sub	r8, r31
    141a:	91 08       	sbc	r9, r1
    141c:	bf cf       	rjmp	.-130    	; 0x139c <vfprintf+0x148>
    141e:	84 36       	cpi	r24, 0x64	; 100
    1420:	19 f0       	breq	.+6      	; 0x1428 <vfprintf+0x1d4>
    1422:	89 36       	cpi	r24, 0x69	; 105
    1424:	09 f0       	breq	.+2      	; 0x1428 <vfprintf+0x1d4>
    1426:	77 c0       	rjmp	.+238    	; 0x1516 <vfprintf+0x2c2>
    1428:	f8 01       	movw	r30, r16
    142a:	37 fe       	sbrs	r3, 7
    142c:	6b c0       	rjmp	.+214    	; 0x1504 <vfprintf+0x2b0>
    142e:	60 81       	ld	r22, Z
    1430:	71 81       	ldd	r23, Z+1	; 0x01
    1432:	82 81       	ldd	r24, Z+2	; 0x02
    1434:	93 81       	ldd	r25, Z+3	; 0x03
    1436:	0c 5f       	subi	r16, 0xFC	; 252
    1438:	1f 4f       	sbci	r17, 0xFF	; 255
    143a:	f3 2d       	mov	r31, r3
    143c:	ff 76       	andi	r31, 0x6F	; 111
    143e:	3f 2e       	mov	r3, r31
    1440:	97 ff       	sbrs	r25, 7
    1442:	09 c0       	rjmp	.+18     	; 0x1456 <vfprintf+0x202>
    1444:	90 95       	com	r25
    1446:	80 95       	com	r24
    1448:	70 95       	com	r23
    144a:	61 95       	neg	r22
    144c:	7f 4f       	sbci	r23, 0xFF	; 255
    144e:	8f 4f       	sbci	r24, 0xFF	; 255
    1450:	9f 4f       	sbci	r25, 0xFF	; 255
    1452:	68 94       	set
    1454:	37 f8       	bld	r3, 7
    1456:	2a e0       	ldi	r18, 0x0A	; 10
    1458:	30 e0       	ldi	r19, 0x00	; 0
    145a:	a5 01       	movw	r20, r10
    145c:	0e 94 12 0e 	call	0x1c24	; 0x1c24 <__ultoa_invert>
    1460:	c8 2e       	mov	r12, r24
    1462:	ca 18       	sub	r12, r10
    1464:	8c 2c       	mov	r8, r12
    1466:	43 2c       	mov	r4, r3
    1468:	36 fe       	sbrs	r3, 6
    146a:	0c c0       	rjmp	.+24     	; 0x1484 <vfprintf+0x230>
    146c:	e8 94       	clt
    146e:	40 f8       	bld	r4, 0
    1470:	c9 14       	cp	r12, r9
    1472:	40 f4       	brcc	.+16     	; 0x1484 <vfprintf+0x230>
    1474:	34 fe       	sbrs	r3, 4
    1476:	05 c0       	rjmp	.+10     	; 0x1482 <vfprintf+0x22e>
    1478:	32 fc       	sbrc	r3, 2
    147a:	03 c0       	rjmp	.+6      	; 0x1482 <vfprintf+0x22e>
    147c:	f3 2d       	mov	r31, r3
    147e:	fe 7e       	andi	r31, 0xEE	; 238
    1480:	4f 2e       	mov	r4, r31
    1482:	89 2c       	mov	r8, r9
    1484:	44 fe       	sbrs	r4, 4
    1486:	95 c0       	rjmp	.+298    	; 0x15b2 <vfprintf+0x35e>
    1488:	fe 01       	movw	r30, r28
    148a:	ec 0d       	add	r30, r12
    148c:	f1 1d       	adc	r31, r1
    148e:	80 81       	ld	r24, Z
    1490:	80 33       	cpi	r24, 0x30	; 48
    1492:	09 f0       	breq	.+2      	; 0x1496 <vfprintf+0x242>
    1494:	87 c0       	rjmp	.+270    	; 0x15a4 <vfprintf+0x350>
    1496:	24 2d       	mov	r18, r4
    1498:	29 7e       	andi	r18, 0xE9	; 233
    149a:	42 2e       	mov	r4, r18
    149c:	84 2d       	mov	r24, r4
    149e:	88 70       	andi	r24, 0x08	; 8
    14a0:	58 2e       	mov	r5, r24
    14a2:	43 fc       	sbrc	r4, 3
    14a4:	95 c0       	rjmp	.+298    	; 0x15d0 <vfprintf+0x37c>
    14a6:	40 fe       	sbrs	r4, 0
    14a8:	8f c0       	rjmp	.+286    	; 0x15c8 <vfprintf+0x374>
    14aa:	9c 2c       	mov	r9, r12
    14ac:	82 14       	cp	r8, r2
    14ae:	18 f4       	brcc	.+6      	; 0x14b6 <vfprintf+0x262>
    14b0:	2c 0c       	add	r2, r12
    14b2:	92 2c       	mov	r9, r2
    14b4:	98 18       	sub	r9, r8
    14b6:	44 fe       	sbrs	r4, 4
    14b8:	91 c0       	rjmp	.+290    	; 0x15dc <vfprintf+0x388>
    14ba:	b7 01       	movw	r22, r14
    14bc:	80 e3       	ldi	r24, 0x30	; 48
    14be:	90 e0       	ldi	r25, 0x00	; 0
    14c0:	0e 94 8c 08 	call	0x1118	; 0x1118 <fputc>
    14c4:	42 fe       	sbrs	r4, 2
    14c6:	09 c0       	rjmp	.+18     	; 0x14da <vfprintf+0x286>
    14c8:	88 e7       	ldi	r24, 0x78	; 120
    14ca:	90 e0       	ldi	r25, 0x00	; 0
    14cc:	41 fe       	sbrs	r4, 1
    14ce:	02 c0       	rjmp	.+4      	; 0x14d4 <vfprintf+0x280>
    14d0:	88 e5       	ldi	r24, 0x58	; 88
    14d2:	90 e0       	ldi	r25, 0x00	; 0
    14d4:	b7 01       	movw	r22, r14
    14d6:	0e 94 8c 08 	call	0x1118	; 0x1118 <fputc>
    14da:	c9 14       	cp	r12, r9
    14dc:	08 f4       	brcc	.+2      	; 0x14e0 <vfprintf+0x28c>
    14de:	8a c0       	rjmp	.+276    	; 0x15f4 <vfprintf+0x3a0>
    14e0:	ca 94       	dec	r12
    14e2:	d1 2c       	mov	r13, r1
    14e4:	9f ef       	ldi	r25, 0xFF	; 255
    14e6:	c9 1a       	sub	r12, r25
    14e8:	d9 0a       	sbc	r13, r25
    14ea:	ca 0c       	add	r12, r10
    14ec:	db 1c       	adc	r13, r11
    14ee:	f6 01       	movw	r30, r12
    14f0:	82 91       	ld	r24, -Z
    14f2:	6f 01       	movw	r12, r30
    14f4:	b7 01       	movw	r22, r14
    14f6:	90 e0       	ldi	r25, 0x00	; 0
    14f8:	0e 94 8c 08 	call	0x1118	; 0x1118 <fputc>
    14fc:	ac 14       	cp	r10, r12
    14fe:	bd 04       	cpc	r11, r13
    1500:	b1 f7       	brne	.-20     	; 0x14ee <vfprintf+0x29a>
    1502:	4f cf       	rjmp	.-354    	; 0x13a2 <vfprintf+0x14e>
    1504:	60 81       	ld	r22, Z
    1506:	71 81       	ldd	r23, Z+1	; 0x01
    1508:	07 2e       	mov	r0, r23
    150a:	00 0c       	add	r0, r0
    150c:	88 0b       	sbc	r24, r24
    150e:	99 0b       	sbc	r25, r25
    1510:	0e 5f       	subi	r16, 0xFE	; 254
    1512:	1f 4f       	sbci	r17, 0xFF	; 255
    1514:	92 cf       	rjmp	.-220    	; 0x143a <vfprintf+0x1e6>
    1516:	d3 2c       	mov	r13, r3
    1518:	e8 94       	clt
    151a:	d4 f8       	bld	r13, 4
    151c:	2a e0       	ldi	r18, 0x0A	; 10
    151e:	30 e0       	ldi	r19, 0x00	; 0
    1520:	85 37       	cpi	r24, 0x75	; 117
    1522:	39 f1       	breq	.+78     	; 0x1572 <vfprintf+0x31e>
    1524:	23 2d       	mov	r18, r3
    1526:	29 7f       	andi	r18, 0xF9	; 249
    1528:	d2 2e       	mov	r13, r18
    152a:	8f 36       	cpi	r24, 0x6F	; 111
    152c:	01 f1       	breq	.+64     	; 0x156e <vfprintf+0x31a>
    152e:	48 f4       	brcc	.+18     	; 0x1542 <vfprintf+0x2ee>
    1530:	88 35       	cpi	r24, 0x58	; 88
    1532:	a9 f0       	breq	.+42     	; 0x155e <vfprintf+0x30a>
    1534:	f7 01       	movw	r30, r14
    1536:	86 81       	ldd	r24, Z+6	; 0x06
    1538:	97 81       	ldd	r25, Z+7	; 0x07
    153a:	2b 96       	adiw	r28, 0x0b	; 11
    153c:	e2 e1       	ldi	r30, 0x12	; 18
    153e:	0c 94 fa 07 	jmp	0xff4	; 0xff4 <__epilogue_restores__>
    1542:	80 37       	cpi	r24, 0x70	; 112
    1544:	49 f0       	breq	.+18     	; 0x1558 <vfprintf+0x304>
    1546:	88 37       	cpi	r24, 0x78	; 120
    1548:	a9 f7       	brne	.-22     	; 0x1534 <vfprintf+0x2e0>
    154a:	d4 fe       	sbrs	r13, 4
    154c:	02 c0       	rjmp	.+4      	; 0x1552 <vfprintf+0x2fe>
    154e:	68 94       	set
    1550:	d2 f8       	bld	r13, 2
    1552:	20 e1       	ldi	r18, 0x10	; 16
    1554:	30 e0       	ldi	r19, 0x00	; 0
    1556:	0d c0       	rjmp	.+26     	; 0x1572 <vfprintf+0x31e>
    1558:	68 94       	set
    155a:	d4 f8       	bld	r13, 4
    155c:	f6 cf       	rjmp	.-20     	; 0x154a <vfprintf+0x2f6>
    155e:	34 fe       	sbrs	r3, 4
    1560:	03 c0       	rjmp	.+6      	; 0x1568 <vfprintf+0x314>
    1562:	82 2f       	mov	r24, r18
    1564:	86 60       	ori	r24, 0x06	; 6
    1566:	d8 2e       	mov	r13, r24
    1568:	20 e1       	ldi	r18, 0x10	; 16
    156a:	32 e0       	ldi	r19, 0x02	; 2
    156c:	02 c0       	rjmp	.+4      	; 0x1572 <vfprintf+0x31e>
    156e:	28 e0       	ldi	r18, 0x08	; 8
    1570:	30 e0       	ldi	r19, 0x00	; 0
    1572:	f8 01       	movw	r30, r16
    1574:	d7 fe       	sbrs	r13, 7
    1576:	0f c0       	rjmp	.+30     	; 0x1596 <vfprintf+0x342>
    1578:	60 81       	ld	r22, Z
    157a:	71 81       	ldd	r23, Z+1	; 0x01
    157c:	82 81       	ldd	r24, Z+2	; 0x02
    157e:	93 81       	ldd	r25, Z+3	; 0x03
    1580:	0c 5f       	subi	r16, 0xFC	; 252
    1582:	1f 4f       	sbci	r17, 0xFF	; 255
    1584:	a5 01       	movw	r20, r10
    1586:	0e 94 12 0e 	call	0x1c24	; 0x1c24 <__ultoa_invert>
    158a:	c8 2e       	mov	r12, r24
    158c:	ca 18       	sub	r12, r10
    158e:	3d 2c       	mov	r3, r13
    1590:	e8 94       	clt
    1592:	37 f8       	bld	r3, 7
    1594:	67 cf       	rjmp	.-306    	; 0x1464 <vfprintf+0x210>
    1596:	60 81       	ld	r22, Z
    1598:	71 81       	ldd	r23, Z+1	; 0x01
    159a:	90 e0       	ldi	r25, 0x00	; 0
    159c:	80 e0       	ldi	r24, 0x00	; 0
    159e:	0e 5f       	subi	r16, 0xFE	; 254
    15a0:	1f 4f       	sbci	r17, 0xFF	; 255
    15a2:	f0 cf       	rjmp	.-32     	; 0x1584 <vfprintf+0x330>
    15a4:	42 fc       	sbrc	r4, 2
    15a6:	02 c0       	rjmp	.+4      	; 0x15ac <vfprintf+0x358>
    15a8:	83 94       	inc	r8
    15aa:	78 cf       	rjmp	.-272    	; 0x149c <vfprintf+0x248>
    15ac:	83 94       	inc	r8
    15ae:	83 94       	inc	r8
    15b0:	75 cf       	rjmp	.-278    	; 0x149c <vfprintf+0x248>
    15b2:	84 2d       	mov	r24, r4
    15b4:	86 78       	andi	r24, 0x86	; 134
    15b6:	09 f4       	brne	.+2      	; 0x15ba <vfprintf+0x366>
    15b8:	71 cf       	rjmp	.-286    	; 0x149c <vfprintf+0x248>
    15ba:	f6 cf       	rjmp	.-20     	; 0x15a8 <vfprintf+0x354>
    15bc:	b7 01       	movw	r22, r14
    15be:	80 e2       	ldi	r24, 0x20	; 32
    15c0:	90 e0       	ldi	r25, 0x00	; 0
    15c2:	0e 94 8c 08 	call	0x1118	; 0x1118 <fputc>
    15c6:	83 94       	inc	r8
    15c8:	82 14       	cp	r8, r2
    15ca:	c0 f3       	brcs	.-16     	; 0x15bc <vfprintf+0x368>
    15cc:	51 2c       	mov	r5, r1
    15ce:	73 cf       	rjmp	.-282    	; 0x14b6 <vfprintf+0x262>
    15d0:	52 2c       	mov	r5, r2
    15d2:	58 18       	sub	r5, r8
    15d4:	82 14       	cp	r8, r2
    15d6:	08 f4       	brcc	.+2      	; 0x15da <vfprintf+0x386>
    15d8:	6e cf       	rjmp	.-292    	; 0x14b6 <vfprintf+0x262>
    15da:	f8 cf       	rjmp	.-16     	; 0x15cc <vfprintf+0x378>
    15dc:	84 2d       	mov	r24, r4
    15de:	86 78       	andi	r24, 0x86	; 134
    15e0:	09 f4       	brne	.+2      	; 0x15e4 <vfprintf+0x390>
    15e2:	7b cf       	rjmp	.-266    	; 0x14da <vfprintf+0x286>
    15e4:	8b e2       	ldi	r24, 0x2B	; 43
    15e6:	41 fe       	sbrs	r4, 1
    15e8:	80 e2       	ldi	r24, 0x20	; 32
    15ea:	47 fc       	sbrc	r4, 7
    15ec:	8d e2       	ldi	r24, 0x2D	; 45
    15ee:	b7 01       	movw	r22, r14
    15f0:	90 e0       	ldi	r25, 0x00	; 0
    15f2:	71 cf       	rjmp	.-286    	; 0x14d6 <vfprintf+0x282>
    15f4:	b7 01       	movw	r22, r14
    15f6:	80 e3       	ldi	r24, 0x30	; 48
    15f8:	90 e0       	ldi	r25, 0x00	; 0
    15fa:	0e 94 8c 08 	call	0x1118	; 0x1118 <fputc>
    15fe:	9a 94       	dec	r9
    1600:	6c cf       	rjmp	.-296    	; 0x14da <vfprintf+0x286>
    1602:	8f ef       	ldi	r24, 0xFF	; 255
    1604:	9f ef       	ldi	r25, 0xFF	; 255
    1606:	99 cf       	rjmp	.-206    	; 0x153a <vfprintf+0x2e6>

00001608 <putval>:
    1608:	20 fd       	sbrc	r18, 0
    160a:	09 c0       	rjmp	.+18     	; 0x161e <putval+0x16>
    160c:	fc 01       	movw	r30, r24
    160e:	23 fd       	sbrc	r18, 3
    1610:	05 c0       	rjmp	.+10     	; 0x161c <putval+0x14>
    1612:	22 ff       	sbrs	r18, 2
    1614:	02 c0       	rjmp	.+4      	; 0x161a <putval+0x12>
    1616:	73 83       	std	Z+3, r23	; 0x03
    1618:	62 83       	std	Z+2, r22	; 0x02
    161a:	51 83       	std	Z+1, r21	; 0x01
    161c:	40 83       	st	Z, r20
    161e:	08 95       	ret

00001620 <mulacc>:
    1620:	44 fd       	sbrc	r20, 4
    1622:	17 c0       	rjmp	.+46     	; 0x1652 <mulacc+0x32>
    1624:	46 fd       	sbrc	r20, 6
    1626:	1d c0       	rjmp	.+58     	; 0x1662 <mulacc+0x42>
    1628:	db 01       	movw	r26, r22
    162a:	fc 01       	movw	r30, r24
    162c:	aa 0f       	add	r26, r26
    162e:	bb 1f       	adc	r27, r27
    1630:	ee 1f       	adc	r30, r30
    1632:	ff 1f       	adc	r31, r31
    1634:	10 94       	com	r1
    1636:	d1 f7       	brne	.-12     	; 0x162c <mulacc+0xc>
    1638:	6a 0f       	add	r22, r26
    163a:	7b 1f       	adc	r23, r27
    163c:	8e 1f       	adc	r24, r30
    163e:	9f 1f       	adc	r25, r31
    1640:	66 0f       	add	r22, r22
    1642:	77 1f       	adc	r23, r23
    1644:	88 1f       	adc	r24, r24
    1646:	99 1f       	adc	r25, r25
    1648:	62 0f       	add	r22, r18
    164a:	71 1d       	adc	r23, r1
    164c:	81 1d       	adc	r24, r1
    164e:	91 1d       	adc	r25, r1
    1650:	08 95       	ret
    1652:	33 e0       	ldi	r19, 0x03	; 3
    1654:	66 0f       	add	r22, r22
    1656:	77 1f       	adc	r23, r23
    1658:	88 1f       	adc	r24, r24
    165a:	99 1f       	adc	r25, r25
    165c:	31 50       	subi	r19, 0x01	; 1
    165e:	d1 f7       	brne	.-12     	; 0x1654 <mulacc+0x34>
    1660:	f3 cf       	rjmp	.-26     	; 0x1648 <mulacc+0x28>
    1662:	34 e0       	ldi	r19, 0x04	; 4
    1664:	f7 cf       	rjmp	.-18     	; 0x1654 <mulacc+0x34>

00001666 <skip_spaces>:
    1666:	0f 93       	push	r16
    1668:	1f 93       	push	r17
    166a:	cf 93       	push	r28
    166c:	df 93       	push	r29
    166e:	8c 01       	movw	r16, r24
    1670:	c8 01       	movw	r24, r16
    1672:	0e 94 be 0d 	call	0x1b7c	; 0x1b7c <fgetc>
    1676:	ec 01       	movw	r28, r24
    1678:	97 fd       	sbrc	r25, 7
    167a:	08 c0       	rjmp	.+16     	; 0x168c <skip_spaces+0x26>
    167c:	0e 94 94 0d 	call	0x1b28	; 0x1b28 <isspace>
    1680:	89 2b       	or	r24, r25
    1682:	b1 f7       	brne	.-20     	; 0x1670 <skip_spaces+0xa>
    1684:	b8 01       	movw	r22, r16
    1686:	ce 01       	movw	r24, r28
    1688:	0e 94 fa 0d 	call	0x1bf4	; 0x1bf4 <ungetc>
    168c:	ce 01       	movw	r24, r28
    168e:	df 91       	pop	r29
    1690:	cf 91       	pop	r28
    1692:	1f 91       	pop	r17
    1694:	0f 91       	pop	r16
    1696:	08 95       	ret

00001698 <conv_int>:
    1698:	8f 92       	push	r8
    169a:	9f 92       	push	r9
    169c:	af 92       	push	r10
    169e:	bf 92       	push	r11
    16a0:	ef 92       	push	r14
    16a2:	ff 92       	push	r15
    16a4:	0f 93       	push	r16
    16a6:	1f 93       	push	r17
    16a8:	cf 93       	push	r28
    16aa:	df 93       	push	r29
    16ac:	8c 01       	movw	r16, r24
    16ae:	d6 2f       	mov	r29, r22
    16b0:	7a 01       	movw	r14, r20
    16b2:	b2 2e       	mov	r11, r18
    16b4:	0e 94 be 0d 	call	0x1b7c	; 0x1b7c <fgetc>
    16b8:	9c 01       	movw	r18, r24
    16ba:	33 27       	eor	r19, r19
    16bc:	2b 32       	cpi	r18, 0x2B	; 43
    16be:	31 05       	cpc	r19, r1
    16c0:	29 f0       	breq	.+10     	; 0x16cc <conv_int+0x34>
    16c2:	2d 32       	cpi	r18, 0x2D	; 45
    16c4:	31 05       	cpc	r19, r1
    16c6:	a9 f4       	brne	.+42     	; 0x16f2 <conv_int+0x5a>
    16c8:	68 94       	set
    16ca:	b7 f8       	bld	r11, 7
    16cc:	d1 50       	subi	r29, 0x01	; 1
    16ce:	61 f4       	brne	.+24     	; 0x16e8 <conv_int+0x50>
    16d0:	80 e0       	ldi	r24, 0x00	; 0
    16d2:	df 91       	pop	r29
    16d4:	cf 91       	pop	r28
    16d6:	1f 91       	pop	r17
    16d8:	0f 91       	pop	r16
    16da:	ff 90       	pop	r15
    16dc:	ef 90       	pop	r14
    16de:	bf 90       	pop	r11
    16e0:	af 90       	pop	r10
    16e2:	9f 90       	pop	r9
    16e4:	8f 90       	pop	r8
    16e6:	08 95       	ret
    16e8:	c8 01       	movw	r24, r16
    16ea:	0e 94 be 0d 	call	0x1b7c	; 0x1b7c <fgetc>
    16ee:	97 fd       	sbrc	r25, 7
    16f0:	ef cf       	rjmp	.-34     	; 0x16d0 <conv_int+0x38>
    16f2:	cb 2d       	mov	r28, r11
    16f4:	cd 7f       	andi	r28, 0xFD	; 253
    16f6:	2b 2d       	mov	r18, r11
    16f8:	20 73       	andi	r18, 0x30	; 48
    16fa:	f9 f4       	brne	.+62     	; 0x173a <conv_int+0xa2>
    16fc:	80 33       	cpi	r24, 0x30	; 48
    16fe:	e9 f4       	brne	.+58     	; 0x173a <conv_int+0xa2>
    1700:	aa 24       	eor	r10, r10
    1702:	aa 94       	dec	r10
    1704:	ad 0e       	add	r10, r29
    1706:	89 f0       	breq	.+34     	; 0x172a <conv_int+0x92>
    1708:	c8 01       	movw	r24, r16
    170a:	0e 94 be 0d 	call	0x1b7c	; 0x1b7c <fgetc>
    170e:	97 fd       	sbrc	r25, 7
    1710:	0c c0       	rjmp	.+24     	; 0x172a <conv_int+0x92>
    1712:	28 2f       	mov	r18, r24
    1714:	2f 7d       	andi	r18, 0xDF	; 223
    1716:	28 35       	cpi	r18, 0x58	; 88
    1718:	61 f4       	brne	.+24     	; 0x1732 <conv_int+0x9a>
    171a:	c2 64       	ori	r28, 0x42	; 66
    171c:	d2 50       	subi	r29, 0x02	; 2
    171e:	29 f0       	breq	.+10     	; 0x172a <conv_int+0x92>
    1720:	c8 01       	movw	r24, r16
    1722:	0e 94 be 0d 	call	0x1b7c	; 0x1b7c <fgetc>
    1726:	97 ff       	sbrs	r25, 7
    1728:	08 c0       	rjmp	.+16     	; 0x173a <conv_int+0xa2>
    172a:	81 2c       	mov	r8, r1
    172c:	91 2c       	mov	r9, r1
    172e:	54 01       	movw	r10, r8
    1730:	1b c0       	rjmp	.+54     	; 0x1768 <conv_int+0xd0>
    1732:	b6 fe       	sbrs	r11, 6
    1734:	2b c0       	rjmp	.+86     	; 0x178c <conv_int+0xf4>
    1736:	c2 60       	ori	r28, 0x02	; 2
    1738:	da 2d       	mov	r29, r10
    173a:	81 2c       	mov	r8, r1
    173c:	91 2c       	mov	r9, r1
    173e:	54 01       	movw	r10, r8
    1740:	20 ed       	ldi	r18, 0xD0	; 208
    1742:	28 0f       	add	r18, r24
    1744:	28 30       	cpi	r18, 0x08	; 8
    1746:	28 f1       	brcs	.+74     	; 0x1792 <conv_int+0xfa>
    1748:	c4 fd       	sbrc	r28, 4
    174a:	09 c0       	rjmp	.+18     	; 0x175e <conv_int+0xc6>
    174c:	2a 30       	cpi	r18, 0x0A	; 10
    174e:	08 f1       	brcs	.+66     	; 0x1792 <conv_int+0xfa>
    1750:	c6 ff       	sbrs	r28, 6
    1752:	05 c0       	rjmp	.+10     	; 0x175e <conv_int+0xc6>
    1754:	2f 7d       	andi	r18, 0xDF	; 223
    1756:	3f ee       	ldi	r19, 0xEF	; 239
    1758:	32 0f       	add	r19, r18
    175a:	36 30       	cpi	r19, 0x06	; 6
    175c:	c8 f0       	brcs	.+50     	; 0x1790 <conv_int+0xf8>
    175e:	b8 01       	movw	r22, r16
    1760:	0e 94 fa 0d 	call	0x1bf4	; 0x1bf4 <ungetc>
    1764:	c1 ff       	sbrs	r28, 1
    1766:	b4 cf       	rjmp	.-152    	; 0x16d0 <conv_int+0x38>
    1768:	c7 ff       	sbrs	r28, 7
    176a:	08 c0       	rjmp	.+16     	; 0x177c <conv_int+0xe4>
    176c:	b0 94       	com	r11
    176e:	a0 94       	com	r10
    1770:	90 94       	com	r9
    1772:	80 94       	com	r8
    1774:	81 1c       	adc	r8, r1
    1776:	91 1c       	adc	r9, r1
    1778:	a1 1c       	adc	r10, r1
    177a:	b1 1c       	adc	r11, r1
    177c:	2c 2f       	mov	r18, r28
    177e:	b5 01       	movw	r22, r10
    1780:	a4 01       	movw	r20, r8
    1782:	c7 01       	movw	r24, r14
    1784:	0e 94 04 0b 	call	0x1608	; 0x1608 <putval>
    1788:	81 e0       	ldi	r24, 0x01	; 1
    178a:	a3 cf       	rjmp	.-186    	; 0x16d2 <conv_int+0x3a>
    178c:	c2 61       	ori	r28, 0x12	; 18
    178e:	d4 cf       	rjmp	.-88     	; 0x1738 <conv_int+0xa0>
    1790:	27 50       	subi	r18, 0x07	; 7
    1792:	4c 2f       	mov	r20, r28
    1794:	c5 01       	movw	r24, r10
    1796:	b4 01       	movw	r22, r8
    1798:	0e 94 10 0b 	call	0x1620	; 0x1620 <mulacc>
    179c:	4b 01       	movw	r8, r22
    179e:	5c 01       	movw	r10, r24
    17a0:	c2 60       	ori	r28, 0x02	; 2
    17a2:	d1 50       	subi	r29, 0x01	; 1
    17a4:	09 f3       	breq	.-62     	; 0x1768 <conv_int+0xd0>
    17a6:	c8 01       	movw	r24, r16
    17a8:	0e 94 be 0d 	call	0x1b7c	; 0x1b7c <fgetc>
    17ac:	97 ff       	sbrs	r25, 7
    17ae:	c8 cf       	rjmp	.-112    	; 0x1740 <conv_int+0xa8>
    17b0:	d9 cf       	rjmp	.-78     	; 0x1764 <conv_int+0xcc>

000017b2 <conv_brk>:
    17b2:	a0 e2       	ldi	r26, 0x20	; 32
    17b4:	b0 e0       	ldi	r27, 0x00	; 0
    17b6:	ef ed       	ldi	r30, 0xDF	; 223
    17b8:	fb e0       	ldi	r31, 0x0B	; 11
    17ba:	0c 94 e3 07 	jmp	0xfc6	; 0xfc6 <__prologue_saves__+0xa>
    17be:	5c 01       	movw	r10, r24
    17c0:	96 2e       	mov	r9, r22
    17c2:	7a 01       	movw	r14, r20
    17c4:	ce 01       	movw	r24, r28
    17c6:	01 96       	adiw	r24, 0x01	; 1
    17c8:	6c 01       	movw	r12, r24
    17ca:	80 e2       	ldi	r24, 0x20	; 32
    17cc:	f6 01       	movw	r30, r12
    17ce:	11 92       	st	Z+, r1
    17d0:	8a 95       	dec	r24
    17d2:	e9 f7       	brne	.-6      	; 0x17ce <conv_brk+0x1c>
    17d4:	f5 01       	movw	r30, r10
    17d6:	b3 81       	ldd	r27, Z+3	; 0x03
    17d8:	89 01       	movw	r16, r18
    17da:	30 e0       	ldi	r19, 0x00	; 0
    17dc:	20 e0       	ldi	r18, 0x00	; 0
    17de:	71 2c       	mov	r7, r1
    17e0:	81 2c       	mov	r8, r1
    17e2:	a0 e0       	ldi	r26, 0x00	; 0
    17e4:	41 e0       	ldi	r20, 0x01	; 1
    17e6:	50 e0       	ldi	r21, 0x00	; 0
    17e8:	f8 01       	movw	r30, r16
    17ea:	b3 fd       	sbrc	r27, 3
    17ec:	85 91       	lpm	r24, Z+
    17ee:	b3 ff       	sbrs	r27, 3
    17f0:	81 91       	ld	r24, Z+
    17f2:	98 2f       	mov	r25, r24
    17f4:	8f 01       	movw	r16, r30
    17f6:	81 11       	cpse	r24, r1
    17f8:	07 c0       	rjmp	.+14     	; 0x1808 <conv_brk+0x56>
    17fa:	10 e0       	ldi	r17, 0x00	; 0
    17fc:	00 e0       	ldi	r16, 0x00	; 0
    17fe:	c8 01       	movw	r24, r16
    1800:	a0 96       	adiw	r28, 0x20	; 32
    1802:	ed e0       	ldi	r30, 0x0D	; 13
    1804:	0c 94 ff 07 	jmp	0xffe	; 0xffe <__epilogue_restores__+0xa>
    1808:	8e 35       	cpi	r24, 0x5E	; 94
    180a:	19 f4       	brne	.+6      	; 0x1812 <conv_brk+0x60>
    180c:	21 15       	cp	r18, r1
    180e:	31 05       	cpc	r19, r1
    1810:	41 f1       	breq	.+80     	; 0x1862 <conv_brk+0xb0>
    1812:	a2 17       	cp	r26, r18
    1814:	13 06       	cpc	r1, r19
    1816:	4c f4       	brge	.+18     	; 0x182a <conv_brk+0x78>
    1818:	8d 35       	cpi	r24, 0x5D	; 93
    181a:	49 f1       	breq	.+82     	; 0x186e <conv_brk+0xbc>
    181c:	8d 32       	cpi	r24, 0x2D	; 45
    181e:	29 f4       	brne	.+10     	; 0x182a <conv_brk+0x78>
    1820:	81 10       	cpse	r8, r1
    1822:	06 c0       	rjmp	.+12     	; 0x1830 <conv_brk+0x7e>
    1824:	88 24       	eor	r8, r8
    1826:	83 94       	inc	r8
    1828:	1d c0       	rjmp	.+58     	; 0x1864 <conv_brk+0xb2>
    182a:	88 20       	and	r8, r8
    182c:	09 f4       	brne	.+2      	; 0x1830 <conv_brk+0x7e>
    182e:	64 c0       	rjmp	.+200    	; 0x18f8 <conv_brk+0x146>
    1830:	e9 2f       	mov	r30, r25
    1832:	e6 95       	lsr	r30
    1834:	e6 95       	lsr	r30
    1836:	e6 95       	lsr	r30
    1838:	ec 0d       	add	r30, r12
    183a:	fd 2d       	mov	r31, r13
    183c:	f1 1d       	adc	r31, r1
    183e:	89 2f       	mov	r24, r25
    1840:	87 70       	andi	r24, 0x07	; 7
    1842:	ba 01       	movw	r22, r20
    1844:	01 c0       	rjmp	.+2      	; 0x1848 <conv_brk+0x96>
    1846:	66 0f       	add	r22, r22
    1848:	8a 95       	dec	r24
    184a:	ea f7       	brpl	.-6      	; 0x1846 <conv_brk+0x94>
    184c:	80 81       	ld	r24, Z
    184e:	68 2b       	or	r22, r24
    1850:	60 83       	st	Z, r22
    1852:	79 16       	cp	r7, r25
    1854:	51 f0       	breq	.+20     	; 0x186a <conv_brk+0xb8>
    1856:	97 15       	cp	r25, r7
    1858:	10 f4       	brcc	.+4      	; 0x185e <conv_brk+0xac>
    185a:	9f 5f       	subi	r25, 0xFF	; 255
    185c:	e9 cf       	rjmp	.-46     	; 0x1830 <conv_brk+0x7e>
    185e:	91 50       	subi	r25, 0x01	; 1
    1860:	e7 cf       	rjmp	.-50     	; 0x1830 <conv_brk+0x7e>
    1862:	a1 e0       	ldi	r26, 0x01	; 1
    1864:	2f 5f       	subi	r18, 0xFF	; 255
    1866:	3f 4f       	sbci	r19, 0xFF	; 255
    1868:	bf cf       	rjmp	.-130    	; 0x17e8 <conv_brk+0x36>
    186a:	81 2c       	mov	r8, r1
    186c:	fb cf       	rjmp	.-10     	; 0x1864 <conv_brk+0xb2>
    186e:	88 20       	and	r8, r8
    1870:	19 f0       	breq	.+6      	; 0x1878 <conv_brk+0xc6>
    1872:	8e 81       	ldd	r24, Y+6	; 0x06
    1874:	80 62       	ori	r24, 0x20	; 32
    1876:	8e 83       	std	Y+6, r24	; 0x06
    1878:	aa 23       	and	r26, r26
    187a:	59 f0       	breq	.+22     	; 0x1892 <conv_brk+0xe0>
    187c:	f6 01       	movw	r30, r12
    187e:	9e 01       	movw	r18, r28
    1880:	2f 5d       	subi	r18, 0xDF	; 223
    1882:	3f 4f       	sbci	r19, 0xFF	; 255
    1884:	80 81       	ld	r24, Z
    1886:	80 95       	com	r24
    1888:	80 83       	st	Z, r24
    188a:	31 96       	adiw	r30, 0x01	; 1
    188c:	e2 17       	cp	r30, r18
    188e:	f3 07       	cpc	r31, r19
    1890:	c9 f7       	brne	.-14     	; 0x1884 <conv_brk+0xd2>
    1892:	88 24       	eor	r8, r8
    1894:	83 94       	inc	r8
    1896:	c5 01       	movw	r24, r10
    1898:	0e 94 be 0d 	call	0x1b7c	; 0x1b7c <fgetc>
    189c:	97 fd       	sbrc	r25, 7
    189e:	16 c0       	rjmp	.+44     	; 0x18cc <conv_brk+0x11a>
    18a0:	e8 2f       	mov	r30, r24
    18a2:	e6 95       	lsr	r30
    18a4:	e6 95       	lsr	r30
    18a6:	e6 95       	lsr	r30
    18a8:	ec 0d       	add	r30, r12
    18aa:	fd 2d       	mov	r31, r13
    18ac:	f1 1d       	adc	r31, r1
    18ae:	20 81       	ld	r18, Z
    18b0:	30 e0       	ldi	r19, 0x00	; 0
    18b2:	ac 01       	movw	r20, r24
    18b4:	47 70       	andi	r20, 0x07	; 7
    18b6:	55 27       	eor	r21, r21
    18b8:	02 c0       	rjmp	.+4      	; 0x18be <conv_brk+0x10c>
    18ba:	35 95       	asr	r19
    18bc:	27 95       	ror	r18
    18be:	4a 95       	dec	r20
    18c0:	e2 f7       	brpl	.-8      	; 0x18ba <conv_brk+0x108>
    18c2:	20 fd       	sbrc	r18, 0
    18c4:	06 c0       	rjmp	.+12     	; 0x18d2 <conv_brk+0x120>
    18c6:	b5 01       	movw	r22, r10
    18c8:	0e 94 fa 0d 	call	0x1bf4	; 0x1bf4 <ungetc>
    18cc:	88 20       	and	r8, r8
    18ce:	69 f0       	breq	.+26     	; 0x18ea <conv_brk+0x138>
    18d0:	94 cf       	rjmp	.-216    	; 0x17fa <conv_brk+0x48>
    18d2:	e1 14       	cp	r14, r1
    18d4:	f1 04       	cpc	r15, r1
    18d6:	29 f0       	breq	.+10     	; 0x18e2 <conv_brk+0x130>
    18d8:	f7 01       	movw	r30, r14
    18da:	80 83       	st	Z, r24
    18dc:	c7 01       	movw	r24, r14
    18de:	01 96       	adiw	r24, 0x01	; 1
    18e0:	7c 01       	movw	r14, r24
    18e2:	9a 94       	dec	r9
    18e4:	81 2c       	mov	r8, r1
    18e6:	91 10       	cpse	r9, r1
    18e8:	d6 cf       	rjmp	.-84     	; 0x1896 <conv_brk+0xe4>
    18ea:	e1 14       	cp	r14, r1
    18ec:	f1 04       	cpc	r15, r1
    18ee:	09 f4       	brne	.+2      	; 0x18f2 <conv_brk+0x140>
    18f0:	86 cf       	rjmp	.-244    	; 0x17fe <conv_brk+0x4c>
    18f2:	f7 01       	movw	r30, r14
    18f4:	10 82       	st	Z, r1
    18f6:	83 cf       	rjmp	.-250    	; 0x17fe <conv_brk+0x4c>
    18f8:	e8 2f       	mov	r30, r24
    18fa:	e6 95       	lsr	r30
    18fc:	e6 95       	lsr	r30
    18fe:	e6 95       	lsr	r30
    1900:	ec 0d       	add	r30, r12
    1902:	fd 2d       	mov	r31, r13
    1904:	f1 1d       	adc	r31, r1
    1906:	98 2f       	mov	r25, r24
    1908:	97 70       	andi	r25, 0x07	; 7
    190a:	ba 01       	movw	r22, r20
    190c:	01 c0       	rjmp	.+2      	; 0x1910 <conv_brk+0x15e>
    190e:	66 0f       	add	r22, r22
    1910:	9a 95       	dec	r25
    1912:	ea f7       	brpl	.-6      	; 0x190e <conv_brk+0x15c>
    1914:	90 81       	ld	r25, Z
    1916:	69 2b       	or	r22, r25
    1918:	60 83       	st	Z, r22
    191a:	78 2e       	mov	r7, r24
    191c:	a3 cf       	rjmp	.-186    	; 0x1864 <conv_brk+0xb2>

0000191e <vfscanf>:
    191e:	b0 e0       	ldi	r27, 0x00	; 0
    1920:	a0 e0       	ldi	r26, 0x00	; 0
    1922:	e5 e9       	ldi	r30, 0x95	; 149
    1924:	fc e0       	ldi	r31, 0x0C	; 12
    1926:	0c 94 e1 07 	jmp	0xfc2	; 0xfc2 <__prologue_saves__+0x6>
    192a:	6c 01       	movw	r12, r24
    192c:	eb 01       	movw	r28, r22
    192e:	5a 01       	movw	r10, r20
    1930:	fc 01       	movw	r30, r24
    1932:	17 82       	std	Z+7, r1	; 0x07
    1934:	16 82       	std	Z+6, r1	; 0x06
    1936:	51 2c       	mov	r5, r1
    1938:	f6 01       	movw	r30, r12
    193a:	e3 80       	ldd	r14, Z+3	; 0x03
    193c:	fe 01       	movw	r30, r28
    193e:	e3 fc       	sbrc	r14, 3
    1940:	85 91       	lpm	r24, Z+
    1942:	e3 fe       	sbrs	r14, 3
    1944:	81 91       	ld	r24, Z+
    1946:	18 2f       	mov	r17, r24
    1948:	ef 01       	movw	r28, r30
    194a:	88 23       	and	r24, r24
    194c:	e9 f0       	breq	.+58     	; 0x1988 <vfscanf+0x6a>
    194e:	90 e0       	ldi	r25, 0x00	; 0
    1950:	0e 94 94 0d 	call	0x1b28	; 0x1b28 <isspace>
    1954:	89 2b       	or	r24, r25
    1956:	21 f0       	breq	.+8      	; 0x1960 <vfscanf+0x42>
    1958:	c6 01       	movw	r24, r12
    195a:	0e 94 33 0b 	call	0x1666	; 0x1666 <skip_spaces>
    195e:	ec cf       	rjmp	.-40     	; 0x1938 <vfscanf+0x1a>
    1960:	15 32       	cpi	r17, 0x25	; 37
    1962:	41 f4       	brne	.+16     	; 0x1974 <vfscanf+0x56>
    1964:	fe 01       	movw	r30, r28
    1966:	e3 fc       	sbrc	r14, 3
    1968:	15 91       	lpm	r17, Z+
    196a:	e3 fe       	sbrs	r14, 3
    196c:	11 91       	ld	r17, Z+
    196e:	ef 01       	movw	r28, r30
    1970:	15 32       	cpi	r17, 0x25	; 37
    1972:	69 f4       	brne	.+26     	; 0x198e <vfscanf+0x70>
    1974:	c6 01       	movw	r24, r12
    1976:	0e 94 be 0d 	call	0x1b7c	; 0x1b7c <fgetc>
    197a:	97 fd       	sbrc	r25, 7
    197c:	8e c0       	rjmp	.+284    	; 0x1a9a <vfscanf+0x17c>
    197e:	18 17       	cp	r17, r24
    1980:	d9 f2       	breq	.-74     	; 0x1938 <vfscanf+0x1a>
    1982:	b6 01       	movw	r22, r12
    1984:	0e 94 fa 0d 	call	0x1bf4	; 0x1bf4 <ungetc>
    1988:	85 2d       	mov	r24, r5
    198a:	90 e0       	ldi	r25, 0x00	; 0
    198c:	8a c0       	rjmp	.+276    	; 0x1aa2 <vfscanf+0x184>
    198e:	00 e0       	ldi	r16, 0x00	; 0
    1990:	1a 32       	cpi	r17, 0x2A	; 42
    1992:	31 f4       	brne	.+12     	; 0x19a0 <vfscanf+0x82>
    1994:	e3 fc       	sbrc	r14, 3
    1996:	15 91       	lpm	r17, Z+
    1998:	e3 fe       	sbrs	r14, 3
    199a:	11 91       	ld	r17, Z+
    199c:	ef 01       	movw	r28, r30
    199e:	01 e0       	ldi	r16, 0x01	; 1
    19a0:	f1 2c       	mov	r15, r1
    19a2:	20 ed       	ldi	r18, 0xD0	; 208
    19a4:	21 0f       	add	r18, r17
    19a6:	2a 30       	cpi	r18, 0x0A	; 10
    19a8:	48 f1       	brcs	.+82     	; 0x19fc <vfscanf+0xde>
    19aa:	01 ff       	sbrs	r16, 1
    19ac:	37 c0       	rjmp	.+110    	; 0x1a1c <vfscanf+0xfe>
    19ae:	ff 20       	and	r15, r15
    19b0:	59 f3       	breq	.-42     	; 0x1988 <vfscanf+0x6a>
    19b2:	18 36       	cpi	r17, 0x68	; 104
    19b4:	b1 f1       	breq	.+108    	; 0x1a22 <vfscanf+0x104>
    19b6:	1c 36       	cpi	r17, 0x6C	; 108
    19b8:	09 f4       	brne	.+2      	; 0x19bc <vfscanf+0x9e>
    19ba:	3d c0       	rjmp	.+122    	; 0x1a36 <vfscanf+0x118>
    19bc:	11 23       	and	r17, r17
    19be:	21 f3       	breq	.-56     	; 0x1988 <vfscanf+0x6a>
    19c0:	61 2f       	mov	r22, r17
    19c2:	70 e0       	ldi	r23, 0x00	; 0
    19c4:	84 eb       	ldi	r24, 0xB4	; 180
    19c6:	9c e2       	ldi	r25, 0x2C	; 44
    19c8:	0e 94 9d 0d 	call	0x1b3a	; 0x1b3a <strchr_P>
    19cc:	89 2b       	or	r24, r25
    19ce:	e1 f2       	breq	.-72     	; 0x1988 <vfscanf+0x6a>
    19d0:	91 2c       	mov	r9, r1
    19d2:	81 2c       	mov	r8, r1
    19d4:	00 fd       	sbrc	r16, 0
    19d6:	06 c0       	rjmp	.+12     	; 0x19e4 <vfscanf+0xc6>
    19d8:	f5 01       	movw	r30, r10
    19da:	80 80       	ld	r8, Z
    19dc:	91 80       	ldd	r9, Z+1	; 0x01
    19de:	c5 01       	movw	r24, r10
    19e0:	02 96       	adiw	r24, 0x02	; 2
    19e2:	5c 01       	movw	r10, r24
    19e4:	1e 36       	cpi	r17, 0x6E	; 110
    19e6:	79 f5       	brne	.+94     	; 0x1a46 <vfscanf+0x128>
    19e8:	f6 01       	movw	r30, r12
    19ea:	46 81       	ldd	r20, Z+6	; 0x06
    19ec:	57 81       	ldd	r21, Z+7	; 0x07
    19ee:	70 e0       	ldi	r23, 0x00	; 0
    19f0:	60 e0       	ldi	r22, 0x00	; 0
    19f2:	20 2f       	mov	r18, r16
    19f4:	c4 01       	movw	r24, r8
    19f6:	0e 94 04 0b 	call	0x1608	; 0x1608 <putval>
    19fa:	9e cf       	rjmp	.-196    	; 0x1938 <vfscanf+0x1a>
    19fc:	02 60       	ori	r16, 0x02	; 2
    19fe:	6f 2d       	mov	r22, r15
    1a00:	70 e0       	ldi	r23, 0x00	; 0
    1a02:	90 e0       	ldi	r25, 0x00	; 0
    1a04:	80 e0       	ldi	r24, 0x00	; 0
    1a06:	40 e2       	ldi	r20, 0x20	; 32
    1a08:	0e 94 10 0b 	call	0x1620	; 0x1620 <mulacc>
    1a0c:	f6 2e       	mov	r15, r22
    1a0e:	fe 01       	movw	r30, r28
    1a10:	e3 fc       	sbrc	r14, 3
    1a12:	15 91       	lpm	r17, Z+
    1a14:	e3 fe       	sbrs	r14, 3
    1a16:	11 91       	ld	r17, Z+
    1a18:	ef 01       	movw	r28, r30
    1a1a:	c3 cf       	rjmp	.-122    	; 0x19a2 <vfscanf+0x84>
    1a1c:	ff 24       	eor	r15, r15
    1a1e:	fa 94       	dec	r15
    1a20:	c8 cf       	rjmp	.-112    	; 0x19b2 <vfscanf+0x94>
    1a22:	fe 01       	movw	r30, r28
    1a24:	e3 fc       	sbrc	r14, 3
    1a26:	15 91       	lpm	r17, Z+
    1a28:	e3 fe       	sbrs	r14, 3
    1a2a:	11 91       	ld	r17, Z+
    1a2c:	ef 01       	movw	r28, r30
    1a2e:	18 36       	cpi	r17, 0x68	; 104
    1a30:	09 f0       	breq	.+2      	; 0x1a34 <vfscanf+0x116>
    1a32:	c4 cf       	rjmp	.-120    	; 0x19bc <vfscanf+0x9e>
    1a34:	08 60       	ori	r16, 0x08	; 8
    1a36:	04 60       	ori	r16, 0x04	; 4
    1a38:	fe 01       	movw	r30, r28
    1a3a:	e3 fc       	sbrc	r14, 3
    1a3c:	15 91       	lpm	r17, Z+
    1a3e:	e3 fe       	sbrs	r14, 3
    1a40:	11 91       	ld	r17, Z+
    1a42:	ef 01       	movw	r28, r30
    1a44:	bb cf       	rjmp	.-138    	; 0x19bc <vfscanf+0x9e>
    1a46:	13 36       	cpi	r17, 0x63	; 99
    1a48:	c1 f4       	brne	.+48     	; 0x1a7a <vfscanf+0x15c>
    1a4a:	01 fd       	sbrc	r16, 1
    1a4c:	02 c0       	rjmp	.+4      	; 0x1a52 <vfscanf+0x134>
    1a4e:	ff 24       	eor	r15, r15
    1a50:	f3 94       	inc	r15
    1a52:	c6 01       	movw	r24, r12
    1a54:	0e 94 be 0d 	call	0x1b7c	; 0x1b7c <fgetc>
    1a58:	97 fd       	sbrc	r25, 7
    1a5a:	1f c0       	rjmp	.+62     	; 0x1a9a <vfscanf+0x17c>
    1a5c:	81 14       	cp	r8, r1
    1a5e:	91 04       	cpc	r9, r1
    1a60:	29 f0       	breq	.+10     	; 0x1a6c <vfscanf+0x14e>
    1a62:	f4 01       	movw	r30, r8
    1a64:	80 83       	st	Z, r24
    1a66:	c4 01       	movw	r24, r8
    1a68:	01 96       	adiw	r24, 0x01	; 1
    1a6a:	4c 01       	movw	r8, r24
    1a6c:	fa 94       	dec	r15
    1a6e:	f1 10       	cpse	r15, r1
    1a70:	f0 cf       	rjmp	.-32     	; 0x1a52 <vfscanf+0x134>
    1a72:	00 fd       	sbrc	r16, 0
    1a74:	61 cf       	rjmp	.-318    	; 0x1938 <vfscanf+0x1a>
    1a76:	53 94       	inc	r5
    1a78:	5f cf       	rjmp	.-322    	; 0x1938 <vfscanf+0x1a>
    1a7a:	1b 35       	cpi	r17, 0x5B	; 91
    1a7c:	b9 f4       	brne	.+46     	; 0x1aac <vfscanf+0x18e>
    1a7e:	9e 01       	movw	r18, r28
    1a80:	a4 01       	movw	r20, r8
    1a82:	6f 2d       	mov	r22, r15
    1a84:	c6 01       	movw	r24, r12
    1a86:	0e 94 d9 0b 	call	0x17b2	; 0x17b2 <conv_brk>
    1a8a:	ec 01       	movw	r28, r24
    1a8c:	89 2b       	or	r24, r25
    1a8e:	89 f7       	brne	.-30     	; 0x1a72 <vfscanf+0x154>
    1a90:	f6 01       	movw	r30, r12
    1a92:	83 81       	ldd	r24, Z+3	; 0x03
    1a94:	80 73       	andi	r24, 0x30	; 48
    1a96:	09 f4       	brne	.+2      	; 0x1a9a <vfscanf+0x17c>
    1a98:	77 cf       	rjmp	.-274    	; 0x1988 <vfscanf+0x6a>
    1a9a:	8f ef       	ldi	r24, 0xFF	; 255
    1a9c:	9f ef       	ldi	r25, 0xFF	; 255
    1a9e:	51 10       	cpse	r5, r1
    1aa0:	73 cf       	rjmp	.-282    	; 0x1988 <vfscanf+0x6a>
    1aa2:	cd b7       	in	r28, 0x3d	; 61
    1aa4:	de b7       	in	r29, 0x3e	; 62
    1aa6:	ef e0       	ldi	r30, 0x0F	; 15
    1aa8:	0c 94 fd 07 	jmp	0xffa	; 0xffa <__epilogue_restores__+0x6>
    1aac:	c6 01       	movw	r24, r12
    1aae:	0e 94 33 0b 	call	0x1666	; 0x1666 <skip_spaces>
    1ab2:	97 fd       	sbrc	r25, 7
    1ab4:	f2 cf       	rjmp	.-28     	; 0x1a9a <vfscanf+0x17c>
    1ab6:	1f 36       	cpi	r17, 0x6F	; 111
    1ab8:	a9 f1       	breq	.+106    	; 0x1b24 <vfscanf+0x206>
    1aba:	30 f4       	brcc	.+12     	; 0x1ac8 <vfscanf+0x1aa>
    1abc:	14 36       	cpi	r17, 0x64	; 100
    1abe:	41 f0       	breq	.+16     	; 0x1ad0 <vfscanf+0x1b2>
    1ac0:	19 36       	cpi	r17, 0x69	; 105
    1ac2:	39 f0       	breq	.+14     	; 0x1ad2 <vfscanf+0x1b4>
    1ac4:	00 64       	ori	r16, 0x40	; 64
    1ac6:	05 c0       	rjmp	.+10     	; 0x1ad2 <vfscanf+0x1b4>
    1ac8:	13 37       	cpi	r17, 0x73	; 115
    1aca:	b9 f0       	breq	.+46     	; 0x1afa <vfscanf+0x1dc>
    1acc:	15 37       	cpi	r17, 0x75	; 117
    1ace:	d1 f7       	brne	.-12     	; 0x1ac4 <vfscanf+0x1a6>
    1ad0:	00 62       	ori	r16, 0x20	; 32
    1ad2:	20 2f       	mov	r18, r16
    1ad4:	a4 01       	movw	r20, r8
    1ad6:	6f 2d       	mov	r22, r15
    1ad8:	c6 01       	movw	r24, r12
    1ada:	0e 94 4c 0b 	call	0x1698	; 0x1698 <conv_int>
    1ade:	81 11       	cpse	r24, r1
    1ae0:	c8 cf       	rjmp	.-112    	; 0x1a72 <vfscanf+0x154>
    1ae2:	d6 cf       	rjmp	.-84     	; 0x1a90 <vfscanf+0x172>
    1ae4:	81 14       	cp	r8, r1
    1ae6:	91 04       	cpc	r9, r1
    1ae8:	29 f0       	breq	.+10     	; 0x1af4 <vfscanf+0x1d6>
    1aea:	f4 01       	movw	r30, r8
    1aec:	60 82       	st	Z, r6
    1aee:	c4 01       	movw	r24, r8
    1af0:	01 96       	adiw	r24, 0x01	; 1
    1af2:	4c 01       	movw	r8, r24
    1af4:	fa 94       	dec	r15
    1af6:	ff 20       	and	r15, r15
    1af8:	71 f0       	breq	.+28     	; 0x1b16 <vfscanf+0x1f8>
    1afa:	c6 01       	movw	r24, r12
    1afc:	0e 94 be 0d 	call	0x1b7c	; 0x1b7c <fgetc>
    1b00:	3c 01       	movw	r6, r24
    1b02:	97 fd       	sbrc	r25, 7
    1b04:	08 c0       	rjmp	.+16     	; 0x1b16 <vfscanf+0x1f8>
    1b06:	0e 94 94 0d 	call	0x1b28	; 0x1b28 <isspace>
    1b0a:	89 2b       	or	r24, r25
    1b0c:	59 f3       	breq	.-42     	; 0x1ae4 <vfscanf+0x1c6>
    1b0e:	b6 01       	movw	r22, r12
    1b10:	c3 01       	movw	r24, r6
    1b12:	0e 94 fa 0d 	call	0x1bf4	; 0x1bf4 <ungetc>
    1b16:	81 14       	cp	r8, r1
    1b18:	91 04       	cpc	r9, r1
    1b1a:	09 f4       	brne	.+2      	; 0x1b1e <vfscanf+0x200>
    1b1c:	aa cf       	rjmp	.-172    	; 0x1a72 <vfscanf+0x154>
    1b1e:	f4 01       	movw	r30, r8
    1b20:	10 82       	st	Z, r1
    1b22:	a7 cf       	rjmp	.-178    	; 0x1a72 <vfscanf+0x154>
    1b24:	00 61       	ori	r16, 0x10	; 16
    1b26:	d5 cf       	rjmp	.-86     	; 0x1ad2 <vfscanf+0x1b4>

00001b28 <isspace>:
    1b28:	91 11       	cpse	r25, r1
    1b2a:	0c 94 70 0e 	jmp	0x1ce0	; 0x1ce0 <__ctype_isfalse>
    1b2e:	80 32       	cpi	r24, 0x20	; 32
    1b30:	19 f0       	breq	.+6      	; 0x1b38 <isspace+0x10>
    1b32:	89 50       	subi	r24, 0x09	; 9
    1b34:	85 50       	subi	r24, 0x05	; 5
    1b36:	c8 f7       	brcc	.-14     	; 0x1b2a <isspace+0x2>
    1b38:	08 95       	ret

00001b3a <strchr_P>:
    1b3a:	fc 01       	movw	r30, r24
    1b3c:	05 90       	lpm	r0, Z+
    1b3e:	06 16       	cp	r0, r22
    1b40:	21 f0       	breq	.+8      	; 0x1b4a <strchr_P+0x10>
    1b42:	00 20       	and	r0, r0
    1b44:	d9 f7       	brne	.-10     	; 0x1b3c <strchr_P+0x2>
    1b46:	c0 01       	movw	r24, r0
    1b48:	08 95       	ret
    1b4a:	31 97       	sbiw	r30, 0x01	; 1
    1b4c:	cf 01       	movw	r24, r30
    1b4e:	08 95       	ret

00001b50 <strnlen_P>:
    1b50:	fc 01       	movw	r30, r24
    1b52:	05 90       	lpm	r0, Z+
    1b54:	61 50       	subi	r22, 0x01	; 1
    1b56:	70 40       	sbci	r23, 0x00	; 0
    1b58:	01 10       	cpse	r0, r1
    1b5a:	d8 f7       	brcc	.-10     	; 0x1b52 <strnlen_P+0x2>
    1b5c:	80 95       	com	r24
    1b5e:	90 95       	com	r25
    1b60:	8e 0f       	add	r24, r30
    1b62:	9f 1f       	adc	r25, r31
    1b64:	08 95       	ret

00001b66 <strnlen>:
    1b66:	fc 01       	movw	r30, r24
    1b68:	61 50       	subi	r22, 0x01	; 1
    1b6a:	70 40       	sbci	r23, 0x00	; 0
    1b6c:	01 90       	ld	r0, Z+
    1b6e:	01 10       	cpse	r0, r1
    1b70:	d8 f7       	brcc	.-10     	; 0x1b68 <strnlen+0x2>
    1b72:	80 95       	com	r24
    1b74:	90 95       	com	r25
    1b76:	8e 0f       	add	r24, r30
    1b78:	9f 1f       	adc	r25, r31
    1b7a:	08 95       	ret

00001b7c <fgetc>:
    1b7c:	cf 93       	push	r28
    1b7e:	df 93       	push	r29
    1b80:	ec 01       	movw	r28, r24
    1b82:	2b 81       	ldd	r18, Y+3	; 0x03
    1b84:	20 ff       	sbrs	r18, 0
    1b86:	1a c0       	rjmp	.+52     	; 0x1bbc <fgetc+0x40>
    1b88:	26 ff       	sbrs	r18, 6
    1b8a:	0c c0       	rjmp	.+24     	; 0x1ba4 <fgetc+0x28>
    1b8c:	2f 7b       	andi	r18, 0xBF	; 191
    1b8e:	2b 83       	std	Y+3, r18	; 0x03
    1b90:	8e 81       	ldd	r24, Y+6	; 0x06
    1b92:	9f 81       	ldd	r25, Y+7	; 0x07
    1b94:	01 96       	adiw	r24, 0x01	; 1
    1b96:	9f 83       	std	Y+7, r25	; 0x07
    1b98:	8e 83       	std	Y+6, r24	; 0x06
    1b9a:	8a 81       	ldd	r24, Y+2	; 0x02
    1b9c:	90 e0       	ldi	r25, 0x00	; 0
    1b9e:	df 91       	pop	r29
    1ba0:	cf 91       	pop	r28
    1ba2:	08 95       	ret
    1ba4:	22 ff       	sbrs	r18, 2
    1ba6:	18 c0       	rjmp	.+48     	; 0x1bd8 <fgetc+0x5c>
    1ba8:	e8 81       	ld	r30, Y
    1baa:	f9 81       	ldd	r31, Y+1	; 0x01
    1bac:	80 81       	ld	r24, Z
    1bae:	08 2e       	mov	r0, r24
    1bb0:	00 0c       	add	r0, r0
    1bb2:	99 0b       	sbc	r25, r25
    1bb4:	00 97       	sbiw	r24, 0x00	; 0
    1bb6:	29 f4       	brne	.+10     	; 0x1bc2 <fgetc+0x46>
    1bb8:	20 62       	ori	r18, 0x20	; 32
    1bba:	2b 83       	std	Y+3, r18	; 0x03
    1bbc:	8f ef       	ldi	r24, 0xFF	; 255
    1bbe:	9f ef       	ldi	r25, 0xFF	; 255
    1bc0:	ee cf       	rjmp	.-36     	; 0x1b9e <fgetc+0x22>
    1bc2:	31 96       	adiw	r30, 0x01	; 1
    1bc4:	f9 83       	std	Y+1, r31	; 0x01
    1bc6:	e8 83       	st	Y, r30
    1bc8:	2e 81       	ldd	r18, Y+6	; 0x06
    1bca:	3f 81       	ldd	r19, Y+7	; 0x07
    1bcc:	2f 5f       	subi	r18, 0xFF	; 255
    1bce:	3f 4f       	sbci	r19, 0xFF	; 255
    1bd0:	3f 83       	std	Y+7, r19	; 0x07
    1bd2:	2e 83       	std	Y+6, r18	; 0x06
    1bd4:	99 27       	eor	r25, r25
    1bd6:	e3 cf       	rjmp	.-58     	; 0x1b9e <fgetc+0x22>
    1bd8:	ea 85       	ldd	r30, Y+10	; 0x0a
    1bda:	fb 85       	ldd	r31, Y+11	; 0x0b
    1bdc:	09 95       	icall
    1bde:	97 ff       	sbrs	r25, 7
    1be0:	f3 cf       	rjmp	.-26     	; 0x1bc8 <fgetc+0x4c>
    1be2:	2b 81       	ldd	r18, Y+3	; 0x03
    1be4:	01 96       	adiw	r24, 0x01	; 1
    1be6:	21 f0       	breq	.+8      	; 0x1bf0 <fgetc+0x74>
    1be8:	80 e2       	ldi	r24, 0x20	; 32
    1bea:	82 2b       	or	r24, r18
    1bec:	8b 83       	std	Y+3, r24	; 0x03
    1bee:	e6 cf       	rjmp	.-52     	; 0x1bbc <fgetc+0x40>
    1bf0:	80 e1       	ldi	r24, 0x10	; 16
    1bf2:	fb cf       	rjmp	.-10     	; 0x1bea <fgetc+0x6e>

00001bf4 <ungetc>:
    1bf4:	fb 01       	movw	r30, r22
    1bf6:	23 81       	ldd	r18, Z+3	; 0x03
    1bf8:	20 ff       	sbrs	r18, 0
    1bfa:	11 c0       	rjmp	.+34     	; 0x1c1e <ungetc+0x2a>
    1bfc:	26 fd       	sbrc	r18, 6
    1bfe:	0f c0       	rjmp	.+30     	; 0x1c1e <ungetc+0x2a>
    1c00:	8f 3f       	cpi	r24, 0xFF	; 255
    1c02:	98 07       	cpc	r25, r24
    1c04:	71 f0       	breq	.+28     	; 0x1c22 <ungetc+0x2e>
    1c06:	82 83       	std	Z+2, r24	; 0x02
    1c08:	2f 7d       	andi	r18, 0xDF	; 223
    1c0a:	20 64       	ori	r18, 0x40	; 64
    1c0c:	23 83       	std	Z+3, r18	; 0x03
    1c0e:	26 81       	ldd	r18, Z+6	; 0x06
    1c10:	37 81       	ldd	r19, Z+7	; 0x07
    1c12:	21 50       	subi	r18, 0x01	; 1
    1c14:	31 09       	sbc	r19, r1
    1c16:	37 83       	std	Z+7, r19	; 0x07
    1c18:	26 83       	std	Z+6, r18	; 0x06
    1c1a:	99 27       	eor	r25, r25
    1c1c:	08 95       	ret
    1c1e:	8f ef       	ldi	r24, 0xFF	; 255
    1c20:	9f ef       	ldi	r25, 0xFF	; 255
    1c22:	08 95       	ret

00001c24 <__ultoa_invert>:
    1c24:	fa 01       	movw	r30, r20
    1c26:	aa 27       	eor	r26, r26
    1c28:	28 30       	cpi	r18, 0x08	; 8
    1c2a:	51 f1       	breq	.+84     	; 0x1c80 <__ultoa_invert+0x5c>
    1c2c:	20 31       	cpi	r18, 0x10	; 16
    1c2e:	81 f1       	breq	.+96     	; 0x1c90 <__ultoa_invert+0x6c>
    1c30:	e8 94       	clt
    1c32:	6f 93       	push	r22
    1c34:	6e 7f       	andi	r22, 0xFE	; 254
    1c36:	6e 5f       	subi	r22, 0xFE	; 254
    1c38:	7f 4f       	sbci	r23, 0xFF	; 255
    1c3a:	8f 4f       	sbci	r24, 0xFF	; 255
    1c3c:	9f 4f       	sbci	r25, 0xFF	; 255
    1c3e:	af 4f       	sbci	r26, 0xFF	; 255
    1c40:	b1 e0       	ldi	r27, 0x01	; 1
    1c42:	3e d0       	rcall	.+124    	; 0x1cc0 <__ultoa_invert+0x9c>
    1c44:	b4 e0       	ldi	r27, 0x04	; 4
    1c46:	3c d0       	rcall	.+120    	; 0x1cc0 <__ultoa_invert+0x9c>
    1c48:	67 0f       	add	r22, r23
    1c4a:	78 1f       	adc	r23, r24
    1c4c:	89 1f       	adc	r24, r25
    1c4e:	9a 1f       	adc	r25, r26
    1c50:	a1 1d       	adc	r26, r1
    1c52:	68 0f       	add	r22, r24
    1c54:	79 1f       	adc	r23, r25
    1c56:	8a 1f       	adc	r24, r26
    1c58:	91 1d       	adc	r25, r1
    1c5a:	a1 1d       	adc	r26, r1
    1c5c:	6a 0f       	add	r22, r26
    1c5e:	71 1d       	adc	r23, r1
    1c60:	81 1d       	adc	r24, r1
    1c62:	91 1d       	adc	r25, r1
    1c64:	a1 1d       	adc	r26, r1
    1c66:	20 d0       	rcall	.+64     	; 0x1ca8 <__ultoa_invert+0x84>
    1c68:	09 f4       	brne	.+2      	; 0x1c6c <__ultoa_invert+0x48>
    1c6a:	68 94       	set
    1c6c:	3f 91       	pop	r19
    1c6e:	2a e0       	ldi	r18, 0x0A	; 10
    1c70:	26 9f       	mul	r18, r22
    1c72:	11 24       	eor	r1, r1
    1c74:	30 19       	sub	r19, r0
    1c76:	30 5d       	subi	r19, 0xD0	; 208
    1c78:	31 93       	st	Z+, r19
    1c7a:	de f6       	brtc	.-74     	; 0x1c32 <__ultoa_invert+0xe>
    1c7c:	cf 01       	movw	r24, r30
    1c7e:	08 95       	ret
    1c80:	46 2f       	mov	r20, r22
    1c82:	47 70       	andi	r20, 0x07	; 7
    1c84:	40 5d       	subi	r20, 0xD0	; 208
    1c86:	41 93       	st	Z+, r20
    1c88:	b3 e0       	ldi	r27, 0x03	; 3
    1c8a:	0f d0       	rcall	.+30     	; 0x1caa <__ultoa_invert+0x86>
    1c8c:	c9 f7       	brne	.-14     	; 0x1c80 <__ultoa_invert+0x5c>
    1c8e:	f6 cf       	rjmp	.-20     	; 0x1c7c <__ultoa_invert+0x58>
    1c90:	46 2f       	mov	r20, r22
    1c92:	4f 70       	andi	r20, 0x0F	; 15
    1c94:	40 5d       	subi	r20, 0xD0	; 208
    1c96:	4a 33       	cpi	r20, 0x3A	; 58
    1c98:	18 f0       	brcs	.+6      	; 0x1ca0 <__ultoa_invert+0x7c>
    1c9a:	49 5d       	subi	r20, 0xD9	; 217
    1c9c:	31 fd       	sbrc	r19, 1
    1c9e:	40 52       	subi	r20, 0x20	; 32
    1ca0:	41 93       	st	Z+, r20
    1ca2:	02 d0       	rcall	.+4      	; 0x1ca8 <__ultoa_invert+0x84>
    1ca4:	a9 f7       	brne	.-22     	; 0x1c90 <__ultoa_invert+0x6c>
    1ca6:	ea cf       	rjmp	.-44     	; 0x1c7c <__ultoa_invert+0x58>
    1ca8:	b4 e0       	ldi	r27, 0x04	; 4
    1caa:	a6 95       	lsr	r26
    1cac:	97 95       	ror	r25
    1cae:	87 95       	ror	r24
    1cb0:	77 95       	ror	r23
    1cb2:	67 95       	ror	r22
    1cb4:	ba 95       	dec	r27
    1cb6:	c9 f7       	brne	.-14     	; 0x1caa <__ultoa_invert+0x86>
    1cb8:	00 97       	sbiw	r24, 0x00	; 0
    1cba:	61 05       	cpc	r22, r1
    1cbc:	71 05       	cpc	r23, r1
    1cbe:	08 95       	ret
    1cc0:	9b 01       	movw	r18, r22
    1cc2:	ac 01       	movw	r20, r24
    1cc4:	0a 2e       	mov	r0, r26
    1cc6:	06 94       	lsr	r0
    1cc8:	57 95       	ror	r21
    1cca:	47 95       	ror	r20
    1ccc:	37 95       	ror	r19
    1cce:	27 95       	ror	r18
    1cd0:	ba 95       	dec	r27
    1cd2:	c9 f7       	brne	.-14     	; 0x1cc6 <__ultoa_invert+0xa2>
    1cd4:	62 0f       	add	r22, r18
    1cd6:	73 1f       	adc	r23, r19
    1cd8:	84 1f       	adc	r24, r20
    1cda:	95 1f       	adc	r25, r21
    1cdc:	a0 1d       	adc	r26, r0
    1cde:	08 95       	ret

00001ce0 <__ctype_isfalse>:
    1ce0:	99 27       	eor	r25, r25
    1ce2:	88 27       	eor	r24, r24

00001ce4 <__ctype_istrue>:
    1ce4:	08 95       	ret

00001ce6 <eeprom_read_byte>:
    1ce6:	f9 99       	sbic	0x1f, 1	; 31
    1ce8:	fe cf       	rjmp	.-4      	; 0x1ce6 <eeprom_read_byte>
    1cea:	92 bd       	out	0x22, r25	; 34
    1cec:	81 bd       	out	0x21, r24	; 33
    1cee:	f8 9a       	sbi	0x1f, 0	; 31
    1cf0:	99 27       	eor	r25, r25
    1cf2:	80 b5       	in	r24, 0x20	; 32
    1cf4:	08 95       	ret

00001cf6 <eeprom_write_block>:
    1cf6:	dc 01       	movw	r26, r24
    1cf8:	cb 01       	movw	r24, r22
    1cfa:	03 c0       	rjmp	.+6      	; 0x1d02 <eeprom_write_block+0xc>
    1cfc:	2d 91       	ld	r18, X+
    1cfe:	0e 94 86 0e 	call	0x1d0c	; 0x1d0c <eeprom_write_r18>
    1d02:	41 50       	subi	r20, 0x01	; 1
    1d04:	50 40       	sbci	r21, 0x00	; 0
    1d06:	d0 f7       	brcc	.-12     	; 0x1cfc <eeprom_write_block+0x6>
    1d08:	08 95       	ret

00001d0a <eeprom_write_byte>:
    1d0a:	26 2f       	mov	r18, r22

00001d0c <eeprom_write_r18>:
    1d0c:	f9 99       	sbic	0x1f, 1	; 31
    1d0e:	fe cf       	rjmp	.-4      	; 0x1d0c <eeprom_write_r18>
    1d10:	1f ba       	out	0x1f, r1	; 31
    1d12:	92 bd       	out	0x22, r25	; 34
    1d14:	81 bd       	out	0x21, r24	; 33
    1d16:	20 bd       	out	0x20, r18	; 32
    1d18:	0f b6       	in	r0, 0x3f	; 63
    1d1a:	f8 94       	cli
    1d1c:	fa 9a       	sbi	0x1f, 2	; 31
    1d1e:	f9 9a       	sbi	0x1f, 1	; 31
    1d20:	0f be       	out	0x3f, r0	; 63
    1d22:	01 96       	adiw	r24, 0x01	; 1
    1d24:	08 95       	ret

Disassembly of section .core_syscalls:

00001d26 <syscall>:
    1d26:	cf 93       	push	r28
    1d28:	df 93       	push	r29
    1d2a:	00 d0       	rcall	.+0      	; 0x1d2c <syscall+0x6>
    1d2c:	1f 92       	push	r1
    1d2e:	cd b7       	in	r28, 0x3d	; 61
    1d30:	de b7       	in	r29, 0x3e	; 62
    1d32:	89 83       	std	Y+1, r24	; 0x01
    1d34:	7b 83       	std	Y+3, r23	; 0x03
    1d36:	6a 83       	std	Y+2, r22	; 0x02
    1d38:	89 81       	ldd	r24, Y+1	; 0x01
    1d3a:	88 2f       	mov	r24, r24
    1d3c:	90 e0       	ldi	r25, 0x00	; 0
    1d3e:	83 30       	cpi	r24, 0x03	; 3
    1d40:	91 05       	cpc	r25, r1
    1d42:	01 f1       	breq	.+64     	; 0x1d84 <syscall+0x5e>
    1d44:	84 30       	cpi	r24, 0x04	; 4
    1d46:	91 05       	cpc	r25, r1
    1d48:	34 f4       	brge	.+12     	; 0x1d56 <syscall+0x30>
    1d4a:	81 30       	cpi	r24, 0x01	; 1
    1d4c:	91 05       	cpc	r25, r1
    1d4e:	61 f0       	breq	.+24     	; 0x1d68 <syscall+0x42>
    1d50:	02 97       	sbiw	r24, 0x02	; 2
    1d52:	79 f0       	breq	.+30     	; 0x1d72 <syscall+0x4c>
    1d54:	49 c0       	rjmp	.+146    	; 0x1de8 <syscall+0xc2>
    1d56:	86 30       	cpi	r24, 0x06	; 6
    1d58:	91 05       	cpc	r25, r1
    1d5a:	69 f1       	breq	.+90     	; 0x1db6 <syscall+0x90>
    1d5c:	88 30       	cpi	r24, 0x08	; 8
    1d5e:	91 05       	cpc	r25, r1
    1d60:	b1 f0       	breq	.+44     	; 0x1d8e <syscall+0x68>
    1d62:	05 97       	sbiw	r24, 0x05	; 5
    1d64:	d9 f0       	breq	.+54     	; 0x1d9c <syscall+0x76>
    1d66:	40 c0       	rjmp	.+128    	; 0x1de8 <syscall+0xc2>
    1d68:	0e 94 6d 02 	call	0x4da	; 0x4da <__usart_init>
    1d6c:	80 e0       	ldi	r24, 0x00	; 0
    1d6e:	90 e0       	ldi	r25, 0x00	; 0
    1d70:	3d c0       	rjmp	.+122    	; 0x1dec <syscall+0xc6>
    1d72:	8a 81       	ldd	r24, Y+2	; 0x02
    1d74:	9b 81       	ldd	r25, Y+3	; 0x03
    1d76:	fc 01       	movw	r30, r24
    1d78:	80 81       	ld	r24, Z
    1d7a:	0e 94 99 02 	call	0x532	; 0x532 <__usart_send_char>
    1d7e:	80 e0       	ldi	r24, 0x00	; 0
    1d80:	90 e0       	ldi	r25, 0x00	; 0
    1d82:	34 c0       	rjmp	.+104    	; 0x1dec <syscall+0xc6>
    1d84:	80 e0       	ldi	r24, 0x00	; 0
    1d86:	90 e0       	ldi	r25, 0x00	; 0
    1d88:	0e 94 b5 02 	call	0x56a	; 0x56a <__usart_receive_char>
    1d8c:	2f c0       	rjmp	.+94     	; 0x1dec <syscall+0xc6>
    1d8e:	8a 81       	ldd	r24, Y+2	; 0x02
    1d90:	9b 81       	ldd	r25, Y+3	; 0x03
    1d92:	fc 01       	movw	r30, r24
    1d94:	80 81       	ld	r24, Z
    1d96:	0e 94 67 06 	call	0xcce	; 0xcce <__call>
    1d9a:	28 c0       	rjmp	.+80     	; 0x1dec <syscall+0xc6>
    1d9c:	8a 81       	ldd	r24, Y+2	; 0x02
    1d9e:	9b 81       	ldd	r25, Y+3	; 0x03
    1da0:	9c 01       	movw	r18, r24
    1da2:	2f 5f       	subi	r18, 0xFF	; 255
    1da4:	3f 4f       	sbci	r19, 0xFF	; 255
    1da6:	8a 81       	ldd	r24, Y+2	; 0x02
    1da8:	9b 81       	ldd	r25, Y+3	; 0x03
    1daa:	fc 01       	movw	r30, r24
    1dac:	80 81       	ld	r24, Z
    1dae:	b9 01       	movw	r22, r18
    1db0:	0e 94 71 03 	call	0x6e2	; 0x6e2 <__fstat_E>
    1db4:	1b c0       	rjmp	.+54     	; 0x1dec <syscall+0xc6>
    1db6:	8a 81       	ldd	r24, Y+2	; 0x02
    1db8:	9b 81       	ldd	r25, Y+3	; 0x03
    1dba:	fc 01       	movw	r30, r24
    1dbc:	80 81       	ld	r24, Z
    1dbe:	91 81       	ldd	r25, Z+1	; 0x01
    1dc0:	04 96       	adiw	r24, 0x04	; 4
    1dc2:	2a 81       	ldd	r18, Y+2	; 0x02
    1dc4:	3b 81       	ldd	r19, Y+3	; 0x03
    1dc6:	a9 01       	movw	r20, r18
    1dc8:	48 0f       	add	r20, r24
    1dca:	59 1f       	adc	r21, r25
    1dcc:	8a 81       	ldd	r24, Y+2	; 0x02
    1dce:	9b 81       	ldd	r25, Y+3	; 0x03
    1dd0:	9c 01       	movw	r18, r24
    1dd2:	2c 5f       	subi	r18, 0xFC	; 252
    1dd4:	3f 4f       	sbci	r19, 0xFF	; 255
    1dd6:	8a 81       	ldd	r24, Y+2	; 0x02
    1dd8:	9b 81       	ldd	r25, Y+3	; 0x03
    1dda:	fc 01       	movw	r30, r24
    1ddc:	80 81       	ld	r24, Z
    1dde:	91 81       	ldd	r25, Z+1	; 0x01
    1de0:	b9 01       	movw	r22, r18
    1de2:	0e 94 e7 03 	call	0x7ce	; 0x7ce <__ffind_E>
    1de6:	02 c0       	rjmp	.+4      	; 0x1dec <syscall+0xc6>
    1de8:	8f ef       	ldi	r24, 0xFF	; 255
    1dea:	9f ef       	ldi	r25, 0xFF	; 255
    1dec:	0f 90       	pop	r0
    1dee:	0f 90       	pop	r0
    1df0:	0f 90       	pop	r0
    1df2:	df 91       	pop	r29
    1df4:	cf 91       	pop	r28
    1df6:	08 95       	ret

Disassembly of section .test:

00002800 <test>:
    2800:	cf 93       	push	r28
    2802:	df 93       	push	r29
    2804:	cd b7       	in	r28, 0x3d	; 61
    2806:	de b7       	in	r29, 0x3e	; 62
    2808:	85 e9       	ldi	r24, 0x95	; 149
    280a:	9c e2       	ldi	r25, 0x2C	; 44
    280c:	89 2f       	mov	r24, r25
    280e:	8f 93       	push	r24
    2810:	85 e9       	ldi	r24, 0x95	; 149
    2812:	9c e2       	ldi	r25, 0x2C	; 44
    2814:	8f 93       	push	r24
    2816:	0e 94 ec 08 	call	0x11d8	; 0x11d8 <printf_P>
    281a:	0f 90       	pop	r0
    281c:	0f 90       	pop	r0
    281e:	80 e0       	ldi	r24, 0x00	; 0
    2820:	90 e0       	ldi	r25, 0x00	; 0
    2822:	df 91       	pop	r29
    2824:	cf 91       	pop	r28
    2826:	08 95       	ret

Disassembly of section .mshell:

00002828 <mshell>:
    2828:	cf 93       	push	r28
    282a:	df 93       	push	r29
    282c:	cd b7       	in	r28, 0x3d	; 61
    282e:	de b7       	in	r29, 0x3e	; 62
    2830:	cd 5a       	subi	r28, 0xAD	; 173
    2832:	d2 40       	sbci	r29, 0x02	; 2
    2834:	0f b6       	in	r0, 0x3f	; 63
    2836:	f8 94       	cli
    2838:	de bf       	out	0x3e, r29	; 62
    283a:	0f be       	out	0x3f, r0	; 63
    283c:	cd bf       	out	0x3d, r28	; 61
    283e:	9e 01       	movw	r18, r28
    2840:	24 55       	subi	r18, 0x54	; 84
    2842:	3d 4f       	sbci	r19, 0xFD	; 253
    2844:	f9 01       	movw	r30, r18
    2846:	91 83       	std	Z+1, r25	; 0x01
    2848:	80 83       	st	Z, r24
    284a:	1e 82       	std	Y+6, r1	; 0x06
    284c:	1d 82       	std	Y+5, r1	; 0x05
    284e:	ce 01       	movw	r24, r28
    2850:	8f 58       	subi	r24, 0x8F	; 143
    2852:	9d 4f       	sbci	r25, 0xFD	; 253
    2854:	20 e2       	ldi	r18, 0x20	; 32
    2856:	30 e0       	ldi	r19, 0x00	; 0
    2858:	fc 01       	movw	r30, r24
    285a:	31 83       	std	Z+1, r19	; 0x01
    285c:	20 83       	st	Z, r18
    285e:	ce 01       	movw	r24, r28
    2860:	8d 58       	subi	r24, 0x8D	; 141
    2862:	9d 4f       	sbci	r25, 0xFD	; 253
    2864:	2f e2       	ldi	r18, 0x2F	; 47
    2866:	30 e0       	ldi	r19, 0x00	; 0
    2868:	fc 01       	movw	r30, r24
    286a:	31 83       	std	Z+1, r19	; 0x01
    286c:	20 83       	st	Z, r18
    286e:	1c 82       	std	Y+4, r1	; 0x04
    2870:	1b 82       	std	Y+3, r1	; 0x03
    2872:	ce 01       	movw	r24, r28
    2874:	8b 58       	subi	r24, 0x8B	; 139
    2876:	9d 4f       	sbci	r25, 0xFD	; 253
    2878:	23 e6       	ldi	r18, 0x63	; 99
    287a:	34 e6       	ldi	r19, 0x64	; 100
    287c:	fc 01       	movw	r30, r24
    287e:	31 83       	std	Z+1, r19	; 0x01
    2880:	20 83       	st	Z, r18
    2882:	fc 01       	movw	r30, r24
    2884:	12 82       	std	Z+2, r1	; 0x02
    2886:	ce 01       	movw	r24, r28
    2888:	8b 58       	subi	r24, 0x8B	; 139
    288a:	9d 4f       	sbci	r25, 0xFD	; 253
    288c:	0b 96       	adiw	r24, 0x0b	; 11
    288e:	2e e2       	ldi	r18, 0x2E	; 46
    2890:	3e e2       	ldi	r19, 0x2E	; 46
    2892:	fc 01       	movw	r30, r24
    2894:	31 83       	std	Z+1, r19	; 0x01
    2896:	20 83       	st	Z, r18
    2898:	fc 01       	movw	r30, r24
    289a:	12 82       	std	Z+2, r1	; 0x02
    289c:	ce 01       	movw	r24, r28
    289e:	8b 58       	subi	r24, 0x8B	; 139
    28a0:	9d 4f       	sbci	r25, 0xFD	; 253
    28a2:	46 96       	adiw	r24, 0x16	; 22
    28a4:	2c e6       	ldi	r18, 0x6C	; 108
    28a6:	33 e7       	ldi	r19, 0x73	; 115
    28a8:	fc 01       	movw	r30, r24
    28aa:	31 83       	std	Z+1, r19	; 0x01
    28ac:	20 83       	st	Z, r18
    28ae:	fc 01       	movw	r30, r24
    28b0:	12 82       	std	Z+2, r1	; 0x02
    28b2:	19 8e       	std	Y+25, r1	; 0x19
    28b4:	ce 01       	movw	r24, r28
    28b6:	8f 51       	subi	r24, 0x1F	; 31
    28b8:	9f 4f       	sbci	r25, 0xFF	; 255
    28ba:	2f e2       	ldi	r18, 0x2F	; 47
    28bc:	30 e0       	ldi	r19, 0x00	; 0
    28be:	fc 01       	movw	r30, r24
    28c0:	31 83       	std	Z+1, r19	; 0x01
    28c2:	20 83       	st	Z, r18
    28c4:	ce 01       	movw	r24, r28
    28c6:	8f 51       	subi	r24, 0x1F	; 31
    28c8:	9f 4f       	sbci	r25, 0xFF	; 255
    28ca:	29 2f       	mov	r18, r25
    28cc:	2f 93       	push	r18
    28ce:	8f 93       	push	r24
    28d0:	ce 01       	movw	r24, r28
    28d2:	84 55       	subi	r24, 0x54	; 84
    28d4:	9d 4f       	sbci	r25, 0xFD	; 253
    28d6:	fc 01       	movw	r30, r24
    28d8:	21 81       	ldd	r18, Z+1	; 0x01
    28da:	2f 93       	push	r18
    28dc:	fc 01       	movw	r30, r24
    28de:	80 81       	ld	r24, Z
    28e0:	8f 93       	push	r24
    28e2:	87 e5       	ldi	r24, 0x57	; 87
    28e4:	9c e2       	ldi	r25, 0x2C	; 44
    28e6:	89 2f       	mov	r24, r25
    28e8:	8f 93       	push	r24
    28ea:	87 e5       	ldi	r24, 0x57	; 87
    28ec:	9c e2       	ldi	r25, 0x2C	; 44
    28ee:	8f 93       	push	r24
    28f0:	0e 94 ec 08 	call	0x11d8	; 0x11d8 <printf_P>
    28f4:	0f 90       	pop	r0
    28f6:	0f 90       	pop	r0
    28f8:	0f 90       	pop	r0
    28fa:	0f 90       	pop	r0
    28fc:	0f 90       	pop	r0
    28fe:	0f 90       	pop	r0
    2900:	ce 01       	movw	r24, r28
    2902:	49 96       	adiw	r24, 0x19	; 25
    2904:	0e 94 2d 07 	call	0xe5a	; 0xe5a <egets>
    2908:	9e 01       	movw	r18, r28
    290a:	2f 58       	subi	r18, 0x8F	; 143
    290c:	3d 4f       	sbci	r19, 0xFD	; 253
    290e:	ce 01       	movw	r24, r28
    2910:	49 96       	adiw	r24, 0x19	; 25
    2912:	b9 01       	movw	r22, r18
    2914:	0e 94 31 08 	call	0x1062	; 0x1062 <strtok>
    2918:	9e 83       	std	Y+6, r25	; 0x06
    291a:	8d 83       	std	Y+5, r24	; 0x05
    291c:	2d 81       	ldd	r18, Y+5	; 0x05
    291e:	3e 81       	ldd	r19, Y+6	; 0x06
    2920:	ce 01       	movw	r24, r28
    2922:	8b 58       	subi	r24, 0x8B	; 139
    2924:	9d 4f       	sbci	r25, 0xFD	; 253
    2926:	b9 01       	movw	r22, r18
    2928:	0e 94 41 08 	call	0x1082	; 0x1082 <strcmp>
    292c:	89 2b       	or	r24, r25
    292e:	09 f0       	breq	.+2      	; 0x2932 <mshell+0x10a>
    2930:	aa c0       	rjmp	.+340    	; 0x2a86 <mshell+0x25e>
    2932:	8d 81       	ldd	r24, Y+5	; 0x05
    2934:	9e 81       	ldd	r25, Y+6	; 0x06
    2936:	89 2b       	or	r24, r25
    2938:	09 f4       	brne	.+2      	; 0x293c <mshell+0x114>
    293a:	a5 c0       	rjmp	.+330    	; 0x2a86 <mshell+0x25e>
    293c:	ce 01       	movw	r24, r28
    293e:	8f 58       	subi	r24, 0x8F	; 143
    2940:	9d 4f       	sbci	r25, 0xFD	; 253
    2942:	bc 01       	movw	r22, r24
    2944:	80 e0       	ldi	r24, 0x00	; 0
    2946:	90 e0       	ldi	r25, 0x00	; 0
    2948:	0e 94 31 08 	call	0x1062	; 0x1062 <strtok>
    294c:	9e 83       	std	Y+6, r25	; 0x06
    294e:	8d 83       	std	Y+5, r24	; 0x05
    2950:	8d 81       	ldd	r24, Y+5	; 0x05
    2952:	9e 81       	ldd	r25, Y+6	; 0x06
    2954:	89 2b       	or	r24, r25
    2956:	09 f4       	brne	.+2      	; 0x295a <mshell+0x132>
    2958:	e3 c0       	rjmp	.+454    	; 0x2b20 <mshell+0x2f8>
    295a:	2d 81       	ldd	r18, Y+5	; 0x05
    295c:	3e 81       	ldd	r19, Y+6	; 0x06
    295e:	ce 01       	movw	r24, r28
    2960:	8b 58       	subi	r24, 0x8B	; 139
    2962:	9d 4f       	sbci	r25, 0xFD	; 253
    2964:	0b 96       	adiw	r24, 0x0b	; 11
    2966:	b9 01       	movw	r22, r18
    2968:	0e 94 41 08 	call	0x1082	; 0x1082 <strcmp>
    296c:	89 2b       	or	r24, r25
    296e:	09 f0       	breq	.+2      	; 0x2972 <mshell+0x14a>
    2970:	4e c0       	rjmp	.+156    	; 0x2a0e <mshell+0x1e6>
    2972:	ce 01       	movw	r24, r28
    2974:	8f 51       	subi	r24, 0x1F	; 31
    2976:	9f 4f       	sbci	r25, 0xFF	; 255
    2978:	0e 94 51 08 	call	0x10a2	; 0x10a2 <strlen>
    297c:	02 97       	sbiw	r24, 0x02	; 2
    297e:	08 f4       	brcc	.+2      	; 0x2982 <mshell+0x15a>
    2980:	46 c0       	rjmp	.+140    	; 0x2a0e <mshell+0x1e6>
    2982:	1c 82       	std	Y+4, r1	; 0x04
    2984:	1b 82       	std	Y+3, r1	; 0x03
    2986:	ce 01       	movw	r24, r28
    2988:	8d 58       	subi	r24, 0x8D	; 141
    298a:	9d 4f       	sbci	r25, 0xFD	; 253
    298c:	fc 01       	movw	r30, r24
    298e:	80 81       	ld	r24, Z
    2990:	28 2f       	mov	r18, r24
    2992:	88 0f       	add	r24, r24
    2994:	33 0b       	sbc	r19, r19
    2996:	ce 01       	movw	r24, r28
    2998:	8f 51       	subi	r24, 0x1F	; 31
    299a:	9f 4f       	sbci	r25, 0xFF	; 255
    299c:	b9 01       	movw	r22, r18
    299e:	0e 94 5a 08 	call	0x10b4	; 0x10b4 <strrchr>
    29a2:	9a 83       	std	Y+2, r25	; 0x02
    29a4:	89 83       	std	Y+1, r24	; 0x01
    29a6:	89 81       	ldd	r24, Y+1	; 0x01
    29a8:	9a 81       	ldd	r25, Y+2	; 0x02
    29aa:	01 97       	sbiw	r24, 0x01	; 1
    29ac:	9a 83       	std	Y+2, r25	; 0x02
    29ae:	89 83       	std	Y+1, r24	; 0x01
    29b0:	10 c0       	rjmp	.+32     	; 0x29d2 <mshell+0x1aa>
    29b2:	8b 81       	ldd	r24, Y+3	; 0x03
    29b4:	9c 81       	ldd	r25, Y+4	; 0x04
    29b6:	01 96       	adiw	r24, 0x01	; 1
    29b8:	9c 83       	std	Y+4, r25	; 0x04
    29ba:	8b 83       	std	Y+3, r24	; 0x03
    29bc:	89 81       	ldd	r24, Y+1	; 0x01
    29be:	9a 81       	ldd	r25, Y+2	; 0x02
    29c0:	fc 01       	movw	r30, r24
    29c2:	80 81       	ld	r24, Z
    29c4:	8f 32       	cpi	r24, 0x2F	; 47
    29c6:	71 f0       	breq	.+28     	; 0x29e4 <mshell+0x1bc>
    29c8:	89 81       	ldd	r24, Y+1	; 0x01
    29ca:	9a 81       	ldd	r25, Y+2	; 0x02
    29cc:	01 97       	sbiw	r24, 0x01	; 1
    29ce:	9a 83       	std	Y+2, r25	; 0x02
    29d0:	89 83       	std	Y+1, r24	; 0x01
    29d2:	ce 01       	movw	r24, r28
    29d4:	8f 51       	subi	r24, 0x1F	; 31
    29d6:	9f 4f       	sbci	r25, 0xFF	; 255
    29d8:	29 81       	ldd	r18, Y+1	; 0x01
    29da:	3a 81       	ldd	r19, Y+2	; 0x02
    29dc:	28 17       	cp	r18, r24
    29de:	39 07       	cpc	r19, r25
    29e0:	40 f7       	brcc	.-48     	; 0x29b2 <mshell+0x18a>
    29e2:	01 c0       	rjmp	.+2      	; 0x29e6 <mshell+0x1be>
    29e4:	00 00       	nop
    29e6:	ce 01       	movw	r24, r28
    29e8:	8f 51       	subi	r24, 0x1F	; 31
    29ea:	9f 4f       	sbci	r25, 0xFF	; 255
    29ec:	0e 94 51 08 	call	0x10a2	; 0x10a2 <strlen>
    29f0:	9c 01       	movw	r18, r24
    29f2:	8b 81       	ldd	r24, Y+3	; 0x03
    29f4:	9c 81       	ldd	r25, Y+4	; 0x04
    29f6:	a9 01       	movw	r20, r18
    29f8:	48 1b       	sub	r20, r24
    29fa:	59 0b       	sbc	r21, r25
    29fc:	ca 01       	movw	r24, r20
    29fe:	9e 01       	movw	r18, r28
    2a00:	2f 51       	subi	r18, 0x1F	; 31
    2a02:	3f 4f       	sbci	r19, 0xFF	; 255
    2a04:	82 0f       	add	r24, r18
    2a06:	93 1f       	adc	r25, r19
    2a08:	fc 01       	movw	r30, r24
    2a0a:	10 82       	st	Z, r1
    2a0c:	8c c0       	rjmp	.+280    	; 0x2b26 <mshell+0x2fe>
    2a0e:	9e 01       	movw	r18, r28
    2a10:	2f 51       	subi	r18, 0x1F	; 31
    2a12:	3f 4f       	sbci	r19, 0xFF	; 255
    2a14:	ce 01       	movw	r24, r28
    2a16:	87 55       	subi	r24, 0x57	; 87
    2a18:	9e 4f       	sbci	r25, 0xFE	; 254
    2a1a:	b9 01       	movw	r22, r18
    2a1c:	0e 94 4a 08 	call	0x1094	; 0x1094 <strcpy>
    2a20:	2d 81       	ldd	r18, Y+5	; 0x05
    2a22:	3e 81       	ldd	r19, Y+6	; 0x06
    2a24:	ce 01       	movw	r24, r28
    2a26:	87 55       	subi	r24, 0x57	; 87
    2a28:	9e 4f       	sbci	r25, 0xFE	; 254
    2a2a:	b9 01       	movw	r22, r18
    2a2c:	0e 94 36 08 	call	0x106c	; 0x106c <strcat>
    2a30:	9e 01       	movw	r18, r28
    2a32:	2d 58       	subi	r18, 0x8D	; 141
    2a34:	3d 4f       	sbci	r19, 0xFD	; 253
    2a36:	ce 01       	movw	r24, r28
    2a38:	87 55       	subi	r24, 0x57	; 87
    2a3a:	9e 4f       	sbci	r25, 0xFE	; 254
    2a3c:	b9 01       	movw	r22, r18
    2a3e:	0e 94 36 08 	call	0x106c	; 0x106c <strcat>
    2a42:	ce 01       	movw	r24, r28
    2a44:	87 55       	subi	r24, 0x57	; 87
    2a46:	9e 4f       	sbci	r25, 0xFE	; 254
    2a48:	0e 94 51 08 	call	0x10a2	; 0x10a2 <strlen>
    2a4c:	fc 01       	movw	r30, r24
    2a4e:	9e 01       	movw	r18, r28
    2a50:	27 5f       	subi	r18, 0xF7	; 247
    2a52:	3f 4f       	sbci	r19, 0xFF	; 255
    2a54:	ce 01       	movw	r24, r28
    2a56:	87 55       	subi	r24, 0x57	; 87
    2a58:	9e 4f       	sbci	r25, 0xFE	; 254
    2a5a:	a9 01       	movw	r20, r18
    2a5c:	bc 01       	movw	r22, r24
    2a5e:	cf 01       	movw	r24, r30
    2a60:	0e 94 e7 03 	call	0x7ce	; 0x7ce <__ffind_E>
    2a64:	98 87       	std	Y+8, r25	; 0x08
    2a66:	8f 83       	std	Y+7, r24	; 0x07
    2a68:	8f 81       	ldd	r24, Y+7	; 0x07
    2a6a:	98 85       	ldd	r25, Y+8	; 0x08
    2a6c:	01 96       	adiw	r24, 0x01	; 1
    2a6e:	09 f4       	brne	.+2      	; 0x2a72 <mshell+0x24a>
    2a70:	59 c0       	rjmp	.+178    	; 0x2b24 <mshell+0x2fc>
    2a72:	9e 01       	movw	r18, r28
    2a74:	27 55       	subi	r18, 0x57	; 87
    2a76:	3e 4f       	sbci	r19, 0xFE	; 254
    2a78:	ce 01       	movw	r24, r28
    2a7a:	8f 51       	subi	r24, 0x1F	; 31
    2a7c:	9f 4f       	sbci	r25, 0xFF	; 255
    2a7e:	b9 01       	movw	r22, r18
    2a80:	0e 94 4a 08 	call	0x1094	; 0x1094 <strcpy>
    2a84:	41 c0       	rjmp	.+130    	; 0x2b08 <mshell+0x2e0>
    2a86:	2d 81       	ldd	r18, Y+5	; 0x05
    2a88:	3e 81       	ldd	r19, Y+6	; 0x06
    2a8a:	ce 01       	movw	r24, r28
    2a8c:	8b 58       	subi	r24, 0x8B	; 139
    2a8e:	9d 4f       	sbci	r25, 0xFD	; 253
    2a90:	46 96       	adiw	r24, 0x16	; 22
    2a92:	b9 01       	movw	r22, r18
    2a94:	0e 94 41 08 	call	0x1082	; 0x1082 <strcmp>
    2a98:	89 2b       	or	r24, r25
    2a9a:	31 f4       	brne	.+12     	; 0x2aa8 <mshell+0x280>
    2a9c:	ce 01       	movw	r24, r28
    2a9e:	8f 51       	subi	r24, 0x1F	; 31
    2aa0:	9f 4f       	sbci	r25, 0xFF	; 255
    2aa2:	0e 94 f2 04 	call	0x9e4	; 0x9e4 <__flist_E>
    2aa6:	30 c0       	rjmp	.+96     	; 0x2b08 <mshell+0x2e0>
    2aa8:	8d 81       	ldd	r24, Y+5	; 0x05
    2aaa:	9e 81       	ldd	r25, Y+6	; 0x06
    2aac:	0e 94 51 08 	call	0x10a2	; 0x10a2 <strlen>
    2ab0:	fc 01       	movw	r30, r24
    2ab2:	9e 01       	movw	r18, r28
    2ab4:	27 5f       	subi	r18, 0xF7	; 247
    2ab6:	3f 4f       	sbci	r19, 0xFF	; 255
    2ab8:	8d 81       	ldd	r24, Y+5	; 0x05
    2aba:	9e 81       	ldd	r25, Y+6	; 0x06
    2abc:	a9 01       	movw	r20, r18
    2abe:	bc 01       	movw	r22, r24
    2ac0:	cf 01       	movw	r24, r30
    2ac2:	0e 94 e7 03 	call	0x7ce	; 0x7ce <__ffind_E>
    2ac6:	98 87       	std	Y+8, r25	; 0x08
    2ac8:	8f 83       	std	Y+7, r24	; 0x07
    2aca:	2f 81       	ldd	r18, Y+7	; 0x07
    2acc:	ce 01       	movw	r24, r28
    2ace:	09 96       	adiw	r24, 0x09	; 9
    2ad0:	bc 01       	movw	r22, r24
    2ad2:	82 2f       	mov	r24, r18
    2ad4:	0e 94 71 03 	call	0x6e2	; 0x6e2 <__fstat_E>
    2ad8:	8a 85       	ldd	r24, Y+10	; 0x0a
    2ada:	88 23       	and	r24, r24
    2adc:	21 f4       	brne	.+8      	; 0x2ae6 <mshell+0x2be>
    2ade:	8f 81       	ldd	r24, Y+7	; 0x07
    2ae0:	0e 94 67 06 	call	0xcce	; 0xcce <__call>
    2ae4:	11 c0       	rjmp	.+34     	; 0x2b08 <mshell+0x2e0>
    2ae6:	8e 81       	ldd	r24, Y+6	; 0x06
    2ae8:	8f 93       	push	r24
    2aea:	8d 81       	ldd	r24, Y+5	; 0x05
    2aec:	8f 93       	push	r24
    2aee:	8f e5       	ldi	r24, 0x5F	; 95
    2af0:	9c e2       	ldi	r25, 0x2C	; 44
    2af2:	89 2f       	mov	r24, r25
    2af4:	8f 93       	push	r24
    2af6:	8f e5       	ldi	r24, 0x5F	; 95
    2af8:	9c e2       	ldi	r25, 0x2C	; 44
    2afa:	8f 93       	push	r24
    2afc:	0e 94 ec 08 	call	0x11d8	; 0x11d8 <printf_P>
    2b00:	0f 90       	pop	r0
    2b02:	0f 90       	pop	r0
    2b04:	0f 90       	pop	r0
    2b06:	0f 90       	pop	r0
    2b08:	82 e9       	ldi	r24, 0x92	; 146
    2b0a:	9c e2       	ldi	r25, 0x2C	; 44
    2b0c:	89 2f       	mov	r24, r25
    2b0e:	8f 93       	push	r24
    2b10:	82 e9       	ldi	r24, 0x92	; 146
    2b12:	9c e2       	ldi	r25, 0x2C	; 44
    2b14:	8f 93       	push	r24
    2b16:	0e 94 ec 08 	call	0x11d8	; 0x11d8 <printf_P>
    2b1a:	0f 90       	pop	r0
    2b1c:	0f 90       	pop	r0
    2b1e:	d2 ce       	rjmp	.-604    	; 0x28c4 <mshell+0x9c>
    2b20:	00 00       	nop
    2b22:	d0 ce       	rjmp	.-608    	; 0x28c4 <mshell+0x9c>
    2b24:	00 00       	nop
    2b26:	ce ce       	rjmp	.-612    	; 0x28c4 <mshell+0x9c>
